# SymbolsHelper-Confirmed: 5.15.3 amd64
libQt53DCore.so.5 libqt53dcore5 #MINVER#
* Build-Depends-Package: qt3d5-dev
 Qt_5.0@Qt_5.0 5.7.1~20161122
 Qt_5.10@Qt_5.10 5.10.1
 Qt_5.11@Qt_5.11 5.11.1
 Qt_5.12@Qt_5.12 5.12.0
 Qt_5.13@Qt_5.13 5.14.2
 Qt_5.14@Qt_5.14 5.14.2
 Qt_5.15@Qt_5.15 5.15.1
 Qt_5.1@Qt_5.1 5.7.1~20161122
 Qt_5.2@Qt_5.2 5.7.1~20161122
 Qt_5.3@Qt_5.3 5.7.1~20161122
 Qt_5.4@Qt_5.4 5.7.1~20161122
 Qt_5.5@Qt_5.5 5.7.1~20161122
 Qt_5.6@Qt_5.6 5.7.1~20161122
 Qt_5.7@Qt_5.7 5.7.1~20161122
 Qt_5.8@Qt_5.8 5.9.0
 Qt_5.9@Qt_5.9 5.9.0
 Qt_5@Qt_5 5.7.1~20161122
 (symver)Qt_5_PRIVATE_API 0
 _ZN8Qt3DCore10QAspectJob13addDependencyE12QWeakPointerIS0_E@Qt_5 5.7.1~20161122
 _ZN8Qt3DCore10QAspectJob16removeDependencyE12QWeakPointerIS0_E@Qt_5 5.7.1~20161122
 _ZN8Qt3DCore10QAspectJobC1Ev@Qt_5 5.7.1~20161122
 _ZN8Qt3DCore10QAspectJobC2Ev@Qt_5 5.7.1~20161122
 _ZN8Qt3DCore10QAspectJobD0Ev@Qt_5 5.7.1~20161122
 _ZN8Qt3DCore10QAspectJobD1Ev@Qt_5 5.7.1~20161122
 _ZN8Qt3DCore10QAspectJobD2Ev@Qt_5 5.7.1~20161122
 _ZN8Qt3DCore10QComponent11qt_metacallEN11QMetaObject4CallEiPPv@Qt_5 5.7.1~20161122
 _ZN8Qt3DCore10QComponent11qt_metacastEPKc@Qt_5 5.7.1~20161122
 _ZN8Qt3DCore10QComponent12setShareableEb@Qt_5 5.7.1~20161122
 _ZN8Qt3DCore10QComponent13addedToEntityEPNS_7QEntityE@Qt_5 5.9.0
 _ZN8Qt3DCore10QComponent16shareableChangedEb@Qt_5 5.7.1~20161122
 _ZN8Qt3DCore10QComponent16staticMetaObjectE@Qt_5 5.7.1~20161122
 _ZN8Qt3DCore10QComponent17removedFromEntityEPNS_7QEntityE@Qt_5 5.9.0
 _ZN8Qt3DCore10QComponentC1EPNS_5QNodeE@Qt_5 5.7.1~20161122
 _ZN8Qt3DCore10QComponentC2EPNS_5QNodeE@Qt_5 5.7.1~20161122
 _ZN8Qt3DCore10QComponentD0Ev@Qt_5 5.7.1~20161122
 _ZN8Qt3DCore10QComponentD1Ev@Qt_5 5.7.1~20161122
 _ZN8Qt3DCore10QComponentD2Ev@Qt_5 5.7.1~20161122
 _ZN8Qt3DCore10QTransform10setScale3DERK9QVector3D@Qt_5 5.7.1~20161122
 _ZN8Qt3DCore10QTransform11qt_metacallEN11QMetaObject4CallEiPPv@Qt_5 5.7.1~20161122
 _ZN8Qt3DCore10QTransform11qt_metacastEPKc@Qt_5 5.7.1~20161122
 _ZN8Qt3DCore10QTransform11setRotationERK11QQuaternion@Qt_5 5.7.1~20161122
 _ZN8Qt3DCore10QTransform12rotateAroundERK9QVector3DfS3_@Qt_5 5.7.1~20161122
 _ZN8Qt3DCore10QTransform12scaleChangedEf@Qt_5 5.7.1~20161122
 _ZN8Qt3DCore10QTransform12setRotationXEf@Qt_5 5.7.1~20161122
 _ZN8Qt3DCore10QTransform12setRotationYEf@Qt_5 5.7.1~20161122
 _ZN8Qt3DCore10QTransform12setRotationZEf@Qt_5 5.7.1~20161122
 _ZN8Qt3DCore10QTransform13matrixChangedEv@Qt_5 5.7.1~20161122
 _ZN8Qt3DCore10QTransform14rotateFromAxesERK9QVector3DS3_S3_@Qt_5 5.11.1
 _ZN8Qt3DCore10QTransform14scale3DChangedERK9QVector3D@Qt_5 5.7.1~20161122
 _ZN8Qt3DCore10QTransform14setTranslationERK9QVector3D@Qt_5 5.7.1~20161122
 _ZN8Qt3DCore10QTransform15fromEulerAnglesERK9QVector3D@Qt_5 5.7.1~20161122
 _ZN8Qt3DCore10QTransform15fromEulerAnglesEfff@Qt_5 5.7.1~20161122
 _ZN8Qt3DCore10QTransform15rotationChangedERK11QQuaternion@Qt_5 5.7.1~20161122
 _ZN8Qt3DCore10QTransform16fromAxisAndAngleERK9QVector3Df@Qt_5 5.7.1~20161122
 _ZN8Qt3DCore10QTransform16fromAxisAndAngleEffff@Qt_5 5.7.1~20161122
 _ZN8Qt3DCore10QTransform16rotationXChangedEf@Qt_5 5.7.1~20161122
 _ZN8Qt3DCore10QTransform16rotationYChangedEf@Qt_5 5.7.1~20161122
 _ZN8Qt3DCore10QTransform16rotationZChangedEf@Qt_5 5.7.1~20161122
 _ZN8Qt3DCore10QTransform16sceneChangeEventERK14QSharedPointerINS_12QSceneChangeEE@Qt_5 5.14.2
 _ZN8Qt3DCore10QTransform16staticMetaObjectE@Qt_5 5.7.1~20161122
 _ZN8Qt3DCore10QTransform17fromAxesAndAnglesERK9QVector3DfS3_f@Qt_5 5.7.1~20161122
 _ZN8Qt3DCore10QTransform17fromAxesAndAnglesERK9QVector3DfS3_fS3_f@Qt_5 5.7.1~20161122
 _ZN8Qt3DCore10QTransform18translationChangedERK9QVector3D@Qt_5 5.7.1~20161122
 _ZN8Qt3DCore10QTransform18worldMatrixChangedERK10QMatrix4x4@Qt_5 5.14.2
 _ZN8Qt3DCore10QTransform8fromAxesERK9QVector3DS3_S3_@Qt_5 5.11.1
 _ZN8Qt3DCore10QTransform8setScaleEf@Qt_5 5.7.1~20161122
 _ZN8Qt3DCore10QTransform9setMatrixERK10QMatrix4x4@Qt_5 5.7.1~20161122
 _ZN8Qt3DCore10QTransformC1EPNS_5QNodeE@Qt_5 5.7.1~20161122
 _ZN8Qt3DCore10QTransformC2EPNS_5QNodeE@Qt_5 5.7.1~20161122
 _ZN8Qt3DCore10QTransformD0Ev@Qt_5 5.7.1~20161122
 _ZN8Qt3DCore10QTransformD1Ev@Qt_5 5.7.1~20161122
 _ZN8Qt3DCore10QTransformD2Ev@Qt_5 5.7.1~20161122
 _ZN8Qt3DCore12QBackendNode10setEnabledEb@Qt_5 5.7.1~20161122
 _ZN8Qt3DCore12QBackendNode11sendCommandERK7QStringRK8QVarianty@Qt_5 5.10.1
 _ZN8Qt3DCore12QBackendNode15notifyObserversERK14QSharedPointerINS_12QSceneChangeEE@Qt_5 5.7.1~20161122
 _ZN8Qt3DCore12QBackendNode16sceneChangeEventERK14QSharedPointerINS_12QSceneChangeEE@Qt_5 5.7.1~20161122
 _ZN8Qt3DCore12QBackendNode18initializeFromPeerERK14QSharedPointerINS_22QNodeCreatedChangeBaseEE@Qt_5 5.7.1~20161122
 _ZN8Qt3DCore12QBackendNode9sendReplyERK14QSharedPointerINS_12QNodeCommandEE@Qt_5 5.10.1
 _ZN8Qt3DCore12QBackendNode9setPeerIdENS_7QNodeIdE@Qt_5 5.7.1~20161122
 _ZN8Qt3DCore12QBackendNodeC1ENS0_4ModeE@Qt_5 5.7.1~20161122
 _ZN8Qt3DCore12QBackendNodeC2ENS0_4ModeE@Qt_5 5.7.1~20161122
 _ZN8Qt3DCore12QBackendNodeD0Ev@Qt_5 5.7.1~20161122
 _ZN8Qt3DCore12QBackendNodeD1Ev@Qt_5 5.7.1~20161122
 _ZN8Qt3DCore12QBackendNodeD2Ev@Qt_5 5.7.1~20161122
 _ZN8Qt3DCore12QNodeCommand19setReplyToCommandIdEy@Qt_5 5.10.1
 _ZN8Qt3DCore12QNodeCommand7setDataERK8QVariant@Qt_5 5.10.1
 _ZN8Qt3DCore12QNodeCommand7setNameERK7QString@Qt_5 5.10.1
 _ZN8Qt3DCore12QNodeCommandC1ENS_7QNodeIdE@Qt_5 5.10.1
 _ZN8Qt3DCore12QNodeCommandC2ENS_7QNodeIdE@Qt_5 5.10.1
 _ZN8Qt3DCore12QNodeCommandD0Ev@Qt_5 5.10.1
 _ZN8Qt3DCore12QNodeCommandD1Ev@Qt_5 5.10.1
 _ZN8Qt3DCore12QNodeCommandD2Ev@Qt_5 5.10.1
 _ZN8Qt3DCore12QSceneChange16setDeliveryFlagsE6QFlagsINS0_12DeliveryFlagEE@Qt_5 5.7.1~20161122
 _ZN8Qt3DCore12QSceneChangeC1ENS_10ChangeFlagENS_7QNodeIdE@Qt_5 5.7.1~20161122
 _ZN8Qt3DCore12QSceneChangeC2ENS_10ChangeFlagENS_7QNodeIdE@Qt_5 5.7.1~20161122
 _ZN8Qt3DCore12QSceneChangeD0Ev@Qt_5 5.7.1~20161122
 _ZN8Qt3DCore12QSceneChangeD1Ev@Qt_5 5.7.1~20161122
 _ZN8Qt3DCore12QSceneChangeD2Ev@Qt_5 5.7.1~20161122
 (arch=amd64 x32)_ZN8Qt3DCore12Vector3D_SSEC1ERKNS_12Vector4D_SSEE@Qt_5 5.10.1
 (arch=amd64 x32)_ZN8Qt3DCore12Vector3D_SSEC2ERKNS_12Vector4D_SSEE@Qt_5 5.10.1
 _ZN8Qt3DCore13QAspectEngine10setRunModeENS0_7RunModeE@Qt_5 5.14.2
 _ZN8Qt3DCore13QAspectEngine11qt_metacallEN11QMetaObject4CallEiPPv@Qt_5 5.7.1~20161122
 _ZN8Qt3DCore13QAspectEngine11qt_metacastEPKc@Qt_5 5.7.1~20161122
 _ZN8Qt3DCore13QAspectEngine12processFrameEv@Qt_5 5.14.2
 _ZN8Qt3DCore13QAspectEngine13setRootEntityE14QSharedPointerINS_7QEntityEE@Qt_5 5.7.1~20161122
 _ZN8Qt3DCore13QAspectEngine14executeCommandERK7QString@Qt_5 5.7.1~20161122
 _ZN8Qt3DCore13QAspectEngine14registerAspectEPNS_15QAbstractAspectE@Qt_5 5.7.1~20161122
 _ZN8Qt3DCore13QAspectEngine14registerAspectERK7QString@Qt_5 5.7.1~20161122
 _ZN8Qt3DCore13QAspectEngine16staticMetaObjectE@Qt_5 5.7.1~20161122
 _ZN8Qt3DCore13QAspectEngine16unregisterAspectEPNS_15QAbstractAspectE@Qt_5 5.7.1~20161122
 _ZN8Qt3DCore13QAspectEngine16unregisterAspectERK7QString@Qt_5 5.7.1~20161122
 _ZN8Qt3DCore13QAspectEngineC1EP7QObject@Qt_5 5.7.1~20161122
 _ZN8Qt3DCore13QAspectEngineC2EP7QObject@Qt_5 5.7.1~20161122
 _ZN8Qt3DCore13QAspectEngineD0Ev@Qt_5 5.7.1~20161122
 _ZN8Qt3DCore13QAspectEngineD1Ev@Qt_5 5.7.1~20161122
 _ZN8Qt3DCore13QAspectEngineD2Ev@Qt_5 5.7.1~20161122
 _ZN8Qt3DCore15QAbstractAspect11qt_metacallEN11QMetaObject4CallEiPPv@Qt_5 5.7.1~20161122
 _ZN8Qt3DCore15QAbstractAspect11qt_metacastEPKc@Qt_5 5.7.1~20161122
 _ZN8Qt3DCore15QAbstractAspect12onRegisteredEv@Qt_5 5.7.1~20161122
 _ZN8Qt3DCore15QAbstractAspect13jobsToExecuteEx@Qt_5 5.7.1~20161122
 _ZN8Qt3DCore15QAbstractAspect14executeCommandERK11QStringList@Qt_5 5.7.1~20161122
 _ZN8Qt3DCore15QAbstractAspect14onUnregisteredEv@Qt_5 5.7.1~20161122
 _ZN8Qt3DCore15QAbstractAspect15onEngineStartupEv@Qt_5 5.7.1~20161122
 _ZN8Qt3DCore15QAbstractAspect16onEngineShutdownEv@Qt_5 5.7.1~20161122
 _ZN8Qt3DCore15QAbstractAspect16staticMetaObjectE@Qt_5 5.7.1~20161122
 _ZN8Qt3DCore15QAbstractAspect19registerBackendTypeERK11QMetaObjectRK14QSharedPointerINS_18QBackendNodeMapperEE@Qt_5 5.7.1~20161122
 _ZN8Qt3DCore15QAbstractAspect19registerBackendTypeERK11QMetaObjectRK14QSharedPointerINS_18QBackendNodeMapperEEb@Qt_5 5.15.1
 _ZN8Qt3DCore15QAbstractAspect21scheduleSingleShotJobERK14QSharedPointerINS_10QAspectJobEE@Qt_5 5.10.1
 _ZN8Qt3DCore15QAbstractAspect21unregisterBackendTypeERK11QMetaObject@Qt_5 5.9.0
 _ZN8Qt3DCore15QAbstractAspectC1EP7QObject@Qt_5 5.7.1~20161122
 _ZN8Qt3DCore15QAbstractAspectC2EP7QObject@Qt_5 5.7.1~20161122
 _ZN8Qt3DCore15QAbstractAspectD0Ev@Qt_5 5.7.1~20161122
 _ZN8Qt3DCore15QAbstractAspectD1Ev@Qt_5 5.7.1~20161122
 _ZN8Qt3DCore15QAbstractAspectD2Ev@Qt_5 5.7.1~20161122
 _ZN8Qt3DCore15QSkeletonLoader11qt_metacallEN11QMetaObject4CallEiPPv@Qt_5 5.10.1
 _ZN8Qt3DCore15QSkeletonLoader11qt_metacastEPKc@Qt_5 5.10.1
 _ZN8Qt3DCore15QSkeletonLoader12setRootJointEPNS_6QJointE@Qt_5 5.10.1
 _ZN8Qt3DCore15QSkeletonLoader13sourceChangedERK4QUrl@Qt_5 5.10.1
 _ZN8Qt3DCore15QSkeletonLoader13statusChangedENS0_6StatusE@Qt_5 5.10.1
 _ZN8Qt3DCore15QSkeletonLoader16rootJointChangedEPNS_6QJointE@Qt_5 5.10.1
 _ZN8Qt3DCore15QSkeletonLoader16sceneChangeEventERK14QSharedPointerINS_12QSceneChangeEE@Qt_5 5.10.1
 _ZN8Qt3DCore15QSkeletonLoader16staticMetaObjectE@Qt_5 5.10.1
 _ZN8Qt3DCore15QSkeletonLoader22setCreateJointsEnabledEb@Qt_5 5.10.1
 _ZN8Qt3DCore15QSkeletonLoader26createJointsEnabledChangedEb@Qt_5 5.10.1
 _ZN8Qt3DCore15QSkeletonLoader9setSourceERK4QUrl@Qt_5 5.10.1
 _ZN8Qt3DCore15QSkeletonLoaderC1EPNS_5QNodeE@Qt_5 5.10.1
 _ZN8Qt3DCore15QSkeletonLoaderC1ERK4QUrlPNS_5QNodeE@Qt_5 5.10.1
 _ZN8Qt3DCore15QSkeletonLoaderC2EPNS_5QNodeE@Qt_5 5.10.1
 _ZN8Qt3DCore15QSkeletonLoaderC2ERK4QUrlPNS_5QNodeE@Qt_5 5.10.1
 _ZN8Qt3DCore15QSkeletonLoaderD0Ev@Qt_5 5.10.1
 _ZN8Qt3DCore15QSkeletonLoaderD1Ev@Qt_5 5.10.1
 _ZN8Qt3DCore15QSkeletonLoaderD2Ev@Qt_5 5.10.1
 _ZN8Qt3DCore17QAbstractSkeleton11qt_metacallEN11QMetaObject4CallEiPPv@Qt_5 5.10.1
 _ZN8Qt3DCore17QAbstractSkeleton11qt_metacastEPKc@Qt_5 5.10.1
 _ZN8Qt3DCore17QAbstractSkeleton16sceneChangeEventERK14QSharedPointerINS_12QSceneChangeEE@Qt_5 5.10.1
 _ZN8Qt3DCore17QAbstractSkeleton16staticMetaObjectE@Qt_5 5.10.1
 _ZN8Qt3DCore17QAbstractSkeleton17jointCountChangedEi@Qt_5 5.10.1
 _ZN8Qt3DCore17QAbstractSkeletonD0Ev@Qt_5 5.10.1
 _ZN8Qt3DCore17QAbstractSkeletonD1Ev@Qt_5 5.10.1
 _ZN8Qt3DCore17QAbstractSkeletonD2Ev@Qt_5 5.10.1
 _ZN8Qt3DCore18QBackendNodeMapperD0Ev@Qt_5 5.7.1~20161122
 _ZN8Qt3DCore18QBackendNodeMapperD1Ev@Qt_5 5.7.1~20161122
 _ZN8Qt3DCore18QBackendNodeMapperD2Ev@Qt_5 5.7.1~20161122
 _ZN8Qt3DCore20QNodeDestroyedChangeC1EPKNS_5QNodeERK7QVectorINS_15QNodeIdTypePairEE@Qt_5 5.7.1~20161122
 _ZN8Qt3DCore20QNodeDestroyedChangeC2EPKNS_5QNodeERK7QVectorINS_15QNodeIdTypePairEE@Qt_5 5.7.1~20161122
 _ZN8Qt3DCore20QNodeDestroyedChangeD0Ev@Qt_5 5.7.1~20161122
 _ZN8Qt3DCore20QNodeDestroyedChangeD1Ev@Qt_5 5.7.1~20161122
 _ZN8Qt3DCore20QNodeDestroyedChangeD2Ev@Qt_5 5.7.1~20161122
 _ZN8Qt3DCore21QComponentAddedChangeC1EPKNS_10QComponentEPKNS_7QEntityE@Qt_5 5.11.1
 _ZN8Qt3DCore21QComponentAddedChangeC1EPKNS_7QEntityEPKNS_10QComponentE@Qt_5 5.7.1~20161122
 _ZN8Qt3DCore21QComponentAddedChangeC2EPKNS_10QComponentEPKNS_7QEntityE@Qt_5 5.11.1
 _ZN8Qt3DCore21QComponentAddedChangeC2EPKNS_7QEntityEPKNS_10QComponentE@Qt_5 5.7.1~20161122
 _ZN8Qt3DCore21QComponentAddedChangeD0Ev@Qt_5 5.7.1~20161122
 _ZN8Qt3DCore21QComponentAddedChangeD1Ev@Qt_5 5.7.1~20161122
 _ZN8Qt3DCore21QComponentAddedChangeD2Ev@Qt_5 5.7.1~20161122
 _ZN8Qt3DCore22QNodeCreatedChangeBaseC1EPKNS_5QNodeE@Qt_5 5.7.1~20161122
 _ZN8Qt3DCore22QNodeCreatedChangeBaseC2EPKNS_5QNodeE@Qt_5 5.7.1~20161122
 _ZN8Qt3DCore22QNodeCreatedChangeBaseD0Ev@Qt_5 5.7.1~20161122
 _ZN8Qt3DCore22QNodeCreatedChangeBaseD1Ev@Qt_5 5.7.1~20161122
 _ZN8Qt3DCore22QNodeCreatedChangeBaseD2Ev@Qt_5 5.7.1~20161122
 _ZN8Qt3DCore22QPropertyUpdatedChange8setValueERK8QVariant@Qt_5 5.7.1~20161122
 _ZN8Qt3DCore22QPropertyUpdatedChangeC1ENS_7QNodeIdE@Qt_5 5.7.1~20161122
 _ZN8Qt3DCore22QPropertyUpdatedChangeC1ERNS_29QPropertyUpdatedChangePrivateENS_7QNodeIdE@Qt_5 5.7.1~20161122
 _ZN8Qt3DCore22QPropertyUpdatedChangeC2ENS_7QNodeIdE@Qt_5 5.7.1~20161122
 _ZN8Qt3DCore22QPropertyUpdatedChangeC2ERNS_29QPropertyUpdatedChangePrivateENS_7QNodeIdE@Qt_5 5.7.1~20161122
 _ZN8Qt3DCore22QPropertyUpdatedChangeD0Ev@Qt_5 5.7.1~20161122
 _ZN8Qt3DCore22QPropertyUpdatedChangeD1Ev@Qt_5 5.7.1~20161122
 _ZN8Qt3DCore22QPropertyUpdatedChangeD2Ev@Qt_5 5.7.1~20161122
 _ZN8Qt3DCore23QComponentRemovedChangeC1EPKNS_10QComponentEPKNS_7QEntityE@Qt_5 5.11.1
 _ZN8Qt3DCore23QComponentRemovedChangeC1EPKNS_7QEntityEPKNS_10QComponentE@Qt_5 5.7.1~20161122
 _ZN8Qt3DCore23QComponentRemovedChangeC2EPKNS_10QComponentEPKNS_7QEntityE@Qt_5 5.11.1
 _ZN8Qt3DCore23QComponentRemovedChangeC2EPKNS_7QEntityEPKNS_10QComponentE@Qt_5 5.7.1~20161122
 _ZN8Qt3DCore23QComponentRemovedChangeD0Ev@Qt_5 5.7.1~20161122
 _ZN8Qt3DCore23QComponentRemovedChangeD1Ev@Qt_5 5.7.1~20161122
 _ZN8Qt3DCore23QComponentRemovedChangeD2Ev@Qt_5 5.7.1~20161122
 _ZN8Qt3DCore24QPropertyNodeAddedChangeC1ENS_7QNodeIdEPNS_5QNodeE@Qt_5 5.7.1~20161122
 _ZN8Qt3DCore24QPropertyNodeAddedChangeC2ENS_7QNodeIdEPNS_5QNodeE@Qt_5 5.7.1~20161122
 _ZN8Qt3DCore24QPropertyNodeAddedChangeD0Ev@Qt_5 5.7.1~20161122
 _ZN8Qt3DCore24QPropertyNodeAddedChangeD1Ev@Qt_5 5.7.1~20161122
 _ZN8Qt3DCore24QPropertyNodeAddedChangeD2Ev@Qt_5 5.7.1~20161122
 _ZN8Qt3DCore25QPropertyValueAddedChange13setAddedValueERK8QVariant@Qt_5 5.7.1~20161122
 _ZN8Qt3DCore25QPropertyValueAddedChangeC1ENS_7QNodeIdE@Qt_5 5.7.1~20161122
 _ZN8Qt3DCore25QPropertyValueAddedChangeC2ENS_7QNodeIdE@Qt_5 5.7.1~20161122
 _ZN8Qt3DCore25QPropertyValueAddedChangeD0Ev@Qt_5 5.7.1~20161122
 _ZN8Qt3DCore25QPropertyValueAddedChangeD1Ev@Qt_5 5.7.1~20161122
 _ZN8Qt3DCore25QPropertyValueAddedChangeD2Ev@Qt_5 5.7.1~20161122
 _ZN8Qt3DCore26QPropertyNodeRemovedChangeC1ENS_7QNodeIdEPNS_5QNodeE@Qt_5 5.7.1~20161122
 _ZN8Qt3DCore26QPropertyNodeRemovedChangeC2ENS_7QNodeIdEPNS_5QNodeE@Qt_5 5.7.1~20161122
 _ZN8Qt3DCore26QPropertyNodeRemovedChangeD0Ev@Qt_5 5.7.1~20161122
 _ZN8Qt3DCore26QPropertyNodeRemovedChangeD1Ev@Qt_5 5.7.1~20161122
 _ZN8Qt3DCore26QPropertyNodeRemovedChangeD2Ev@Qt_5 5.7.1~20161122
 _ZN8Qt3DCore26QPropertyUpdatedChangeBaseC1ENS_7QNodeIdE@Qt_5 5.7.1~20161122
 _ZN8Qt3DCore26QPropertyUpdatedChangeBaseC2ENS_7QNodeIdE@Qt_5 5.7.1~20161122
 _ZN8Qt3DCore26QPropertyUpdatedChangeBaseD0Ev@Qt_5 5.7.1~20161122
 _ZN8Qt3DCore26QPropertyUpdatedChangeBaseD1Ev@Qt_5 5.7.1~20161122
 _ZN8Qt3DCore26QPropertyUpdatedChangeBaseD2Ev@Qt_5 5.7.1~20161122
 _ZN8Qt3DCore27QPropertyValueRemovedChange15setRemovedValueERK8QVariant@Qt_5 5.7.1~20161122
 _ZN8Qt3DCore27QPropertyValueRemovedChangeC1ENS_7QNodeIdE@Qt_5 5.7.1~20161122
 _ZN8Qt3DCore27QPropertyValueRemovedChangeC2ENS_7QNodeIdE@Qt_5 5.7.1~20161122
 _ZN8Qt3DCore27QPropertyValueRemovedChangeD0Ev@Qt_5 5.7.1~20161122
 _ZN8Qt3DCore27QPropertyValueRemovedChangeD1Ev@Qt_5 5.7.1~20161122
 _ZN8Qt3DCore27QPropertyValueRemovedChangeD2Ev@Qt_5 5.7.1~20161122
 _ZN8Qt3DCore29QDynamicPropertyUpdatedChange15setPropertyNameERK10QByteArray@Qt_5 5.7.1~20161122
 _ZN8Qt3DCore29QDynamicPropertyUpdatedChange8setValueERK8QVariant@Qt_5 5.7.1~20161122
 _ZN8Qt3DCore29QDynamicPropertyUpdatedChangeC1ENS_7QNodeIdE@Qt_5 5.7.1~20161122
 _ZN8Qt3DCore29QDynamicPropertyUpdatedChangeC2ENS_7QNodeIdE@Qt_5 5.7.1~20161122
 _ZN8Qt3DCore29QDynamicPropertyUpdatedChangeD0Ev@Qt_5 5.7.1~20161122
 _ZN8Qt3DCore29QDynamicPropertyUpdatedChangeD1Ev@Qt_5 5.7.1~20161122
 _ZN8Qt3DCore29QDynamicPropertyUpdatedChangeD2Ev@Qt_5 5.7.1~20161122
 _ZN8Qt3DCore29QPropertyValueAddedChangeBaseC1ENS_7QNodeIdE@Qt_5 5.7.1~20161122
 _ZN8Qt3DCore29QPropertyValueAddedChangeBaseC2ENS_7QNodeIdE@Qt_5 5.7.1~20161122
 _ZN8Qt3DCore29QPropertyValueAddedChangeBaseD0Ev@Qt_5 5.7.1~20161122
 _ZN8Qt3DCore29QPropertyValueAddedChangeBaseD1Ev@Qt_5 5.7.1~20161122
 _ZN8Qt3DCore29QPropertyValueAddedChangeBaseD2Ev@Qt_5 5.7.1~20161122
 _ZN8Qt3DCore31QPropertyValueRemovedChangeBaseC1ENS_7QNodeIdE@Qt_5 5.7.1~20161122
 _ZN8Qt3DCore31QPropertyValueRemovedChangeBaseC2ENS_7QNodeIdE@Qt_5 5.7.1~20161122
 _ZN8Qt3DCore31QPropertyValueRemovedChangeBaseD0Ev@Qt_5 5.7.1~20161122
 _ZN8Qt3DCore31QPropertyValueRemovedChangeBaseD1Ev@Qt_5 5.7.1~20161122
 _ZN8Qt3DCore31QPropertyValueRemovedChangeBaseD2Ev@Qt_5 5.7.1~20161122
 _ZN8Qt3DCore32QStaticPropertyUpdatedChangeBase15setPropertyNameEPKc@Qt_5 5.7.1~20161122
 _ZN8Qt3DCore32QStaticPropertyUpdatedChangeBaseC1ENS_7QNodeIdE@Qt_5 5.7.1~20161122
 _ZN8Qt3DCore32QStaticPropertyUpdatedChangeBaseC1ERNS_39QStaticPropertyUpdatedChangeBasePrivateENS_7QNodeIdE@Qt_5 5.7.1~20161122
 _ZN8Qt3DCore32QStaticPropertyUpdatedChangeBaseC2ENS_7QNodeIdE@Qt_5 5.7.1~20161122
 _ZN8Qt3DCore32QStaticPropertyUpdatedChangeBaseC2ERNS_39QStaticPropertyUpdatedChangeBasePrivateENS_7QNodeIdE@Qt_5 5.7.1~20161122
 _ZN8Qt3DCore32QStaticPropertyUpdatedChangeBaseD0Ev@Qt_5 5.7.1~20161122
 _ZN8Qt3DCore32QStaticPropertyUpdatedChangeBaseD1Ev@Qt_5 5.7.1~20161122
 _ZN8Qt3DCore32QStaticPropertyUpdatedChangeBaseD2Ev@Qt_5 5.7.1~20161122
 _ZN8Qt3DCore35QStaticPropertyValueAddedChangeBase15setPropertyNameEPKc@Qt_5 5.7.1~20161122
 _ZN8Qt3DCore35QStaticPropertyValueAddedChangeBaseC1ENS_7QNodeIdE@Qt_5 5.7.1~20161122
 _ZN8Qt3DCore35QStaticPropertyValueAddedChangeBaseC2ENS_7QNodeIdE@Qt_5 5.7.1~20161122
 _ZN8Qt3DCore35QStaticPropertyValueAddedChangeBaseD0Ev@Qt_5 5.7.1~20161122
 _ZN8Qt3DCore35QStaticPropertyValueAddedChangeBaseD1Ev@Qt_5 5.7.1~20161122
 _ZN8Qt3DCore35QStaticPropertyValueAddedChangeBaseD2Ev@Qt_5 5.7.1~20161122
 _ZN8Qt3DCore37QStaticPropertyValueRemovedChangeBase15setPropertyNameEPKc@Qt_5 5.7.1~20161122
 _ZN8Qt3DCore37QStaticPropertyValueRemovedChangeBaseC1ENS_7QNodeIdE@Qt_5 5.7.1~20161122
 _ZN8Qt3DCore37QStaticPropertyValueRemovedChangeBaseC2ENS_7QNodeIdE@Qt_5 5.7.1~20161122
 _ZN8Qt3DCore37QStaticPropertyValueRemovedChangeBaseD0Ev@Qt_5 5.7.1~20161122
 _ZN8Qt3DCore37QStaticPropertyValueRemovedChangeBaseD1Ev@Qt_5 5.7.1~20161122
 _ZN8Qt3DCore37QStaticPropertyValueRemovedChangeBaseD2Ev@Qt_5 5.7.1~20161122
 _ZN8Qt3DCore37qt3d_QAspectFactory_addDefaultFactoryERK13QLatin1StringPK11QMetaObjectPFPNS_15QAbstractAspectEP7QObjectE@Qt_5 5.7.1~20161122
 _ZN8Qt3DCore37qt3d_QAspectFactory_addDefaultFactoryERK7QStringPK11QMetaObjectPFPNS_15QAbstractAspectEP7QObjectE@Qt_5 5.9.0
 _ZN8Qt3DCore5QNode10setEnabledEb@Qt_5 5.7.1~20161122
 _ZN8Qt3DCore5QNode11qt_metacallEN11QMetaObject4CallEiPPv@Qt_5 5.7.1~20161122
 _ZN8Qt3DCore5QNode11qt_metacastEPKc@Qt_5 5.7.1~20161122
 _ZN8Qt3DCore5QNode11sendCommandERK7QStringRK8QVarianty@Qt_5 5.10.1
 _ZN8Qt3DCore5QNode13nodeDestroyedEv@Qt_5 5.7.1~20161122
 _ZN8Qt3DCore5QNode13parentChangedEP7QObject@Qt_5 5.7.1~20161122
 _ZN8Qt3DCore5QNode14enabledChangedEb@Qt_5 5.7.1~20161122
 _ZN8Qt3DCore5QNode15notifyObserversERK14QSharedPointerINS_12QSceneChangeEE@Qt_5 5.7.1~20161122
 _ZN8Qt3DCore5QNode16sceneChangeEventERK14QSharedPointerINS_12QSceneChangeEE@Qt_5 5.7.1~20161122
 _ZN8Qt3DCore5QNode16staticMetaObjectE@Qt_5 5.7.1~20161122
 _ZN8Qt3DCore5QNode18blockNotificationsEb@Qt_5 5.7.1~20161122
 _ZN8Qt3DCore5QNode19setPropertyTrackingERK7QStringNS0_20PropertyTrackingModeE@Qt_5 5.9.0
 _ZN8Qt3DCore5QNode21clearPropertyTrackingERK7QString@Qt_5 5.9.0
 _ZN8Qt3DCore5QNode22clearPropertyTrackingsEv@Qt_5 5.9.0
 _ZN8Qt3DCore5QNode30setDefaultPropertyTrackingModeENS0_20PropertyTrackingModeE@Qt_5 5.9.0
 _ZN8Qt3DCore5QNode34defaultPropertyTrackingModeChangedENS0_20PropertyTrackingModeE@Qt_5 5.9.0
 _ZN8Qt3DCore5QNode9sendReplyERK14QSharedPointerINS_12QNodeCommandEE@Qt_5 5.10.1
 _ZN8Qt3DCore5QNode9setParentEPS0_@Qt_5 5.7.1~20161122
 _ZN8Qt3DCore5QNodeC1EPS0_@Qt_5 5.7.1~20161122
 _ZN8Qt3DCore5QNodeC2EPS0_@Qt_5 5.7.1~20161122
 _ZN8Qt3DCore5QNodeD0Ev@Qt_5 5.7.1~20161122
 _ZN8Qt3DCore5QNodeD1Ev@Qt_5 5.7.1~20161122
 _ZN8Qt3DCore5QNodeD2Ev@Qt_5 5.7.1~20161122
 _ZN8Qt3DCore6QJoint11nameChangedERK7QString@Qt_5 5.10.1
 _ZN8Qt3DCore6QJoint11qt_metacallEN11QMetaObject4CallEiPPv@Qt_5 5.10.1
 _ZN8Qt3DCore6QJoint11qt_metacastEPKc@Qt_5 5.10.1
 _ZN8Qt3DCore6QJoint11setRotationERK11QQuaternion@Qt_5 5.10.1
 _ZN8Qt3DCore6QJoint12scaleChangedERK9QVector3D@Qt_5 5.10.1
 _ZN8Qt3DCore6QJoint12setRotationXEf@Qt_5 5.10.1
 _ZN8Qt3DCore6QJoint12setRotationYEf@Qt_5 5.10.1
 _ZN8Qt3DCore6QJoint12setRotationZEf@Qt_5 5.10.1
 _ZN8Qt3DCore6QJoint13addChildJointEPS0_@Qt_5 5.10.1
 _ZN8Qt3DCore6QJoint13setToIdentityEv@Qt_5 5.10.1
 _ZN8Qt3DCore6QJoint14setTranslationERK9QVector3D@Qt_5 5.10.1
 _ZN8Qt3DCore6QJoint15rotationChangedERK11QQuaternion@Qt_5 5.10.1
 _ZN8Qt3DCore6QJoint16removeChildJointEPS0_@Qt_5 5.10.1
 _ZN8Qt3DCore6QJoint16rotationXChangedEf@Qt_5 5.10.1
 _ZN8Qt3DCore6QJoint16rotationYChangedEf@Qt_5 5.10.1
 _ZN8Qt3DCore6QJoint16rotationZChangedEf@Qt_5 5.10.1
 _ZN8Qt3DCore6QJoint16staticMetaObjectE@Qt_5 5.10.1
 _ZN8Qt3DCore6QJoint18translationChangedERK9QVector3D@Qt_5 5.10.1
 _ZN8Qt3DCore6QJoint20setInverseBindMatrixERK10QMatrix4x4@Qt_5 5.10.1
 _ZN8Qt3DCore6QJoint24inverseBindMatrixChangedERK10QMatrix4x4@Qt_5 5.10.1
 _ZN8Qt3DCore6QJoint7setNameERK7QString@Qt_5 5.10.1
 _ZN8Qt3DCore6QJoint8setScaleERK9QVector3D@Qt_5 5.10.1
 _ZN8Qt3DCore6QJointC1EPNS_5QNodeE@Qt_5 5.10.1
 _ZN8Qt3DCore6QJointC2EPNS_5QNodeE@Qt_5 5.10.1
 _ZN8Qt3DCore6QJointD0Ev@Qt_5 5.10.1
 _ZN8Qt3DCore6QJointD1Ev@Qt_5 5.10.1
 _ZN8Qt3DCore6QJointD2Ev@Qt_5 5.10.1
 _ZN8Qt3DCore7QEntity11qt_metacallEN11QMetaObject4CallEiPPv@Qt_5 5.7.1~20161122
 _ZN8Qt3DCore7QEntity11qt_metacastEPKc@Qt_5 5.7.1~20161122
 _ZN8Qt3DCore7QEntity12addComponentEPNS_10QComponentE@Qt_5 5.7.1~20161122
 _ZN8Qt3DCore7QEntity15onParentChangedEP7QObject@Qt_5 5.12.4
 _ZN8Qt3DCore7QEntity15removeComponentEPNS_10QComponentE@Qt_5 5.7.1~20161122
 _ZN8Qt3DCore7QEntity16staticMetaObjectE@Qt_5 5.7.1~20161122
 _ZN8Qt3DCore7QEntityC1EPNS_5QNodeE@Qt_5 5.7.1~20161122
 _ZN8Qt3DCore7QEntityC2EPNS_5QNodeE@Qt_5 5.7.1~20161122
 _ZN8Qt3DCore7QEntityD0Ev@Qt_5 5.7.1~20161122
 _ZN8Qt3DCore7QEntityD1Ev@Qt_5 5.7.1~20161122
 _ZN8Qt3DCore7QEntityD2Ev@Qt_5 5.7.1~20161122
 _ZN8Qt3DCore7QNodeId8createIdEv@Qt_5 5.7.1~20161122
 _ZN8Qt3DCore9QArmature11qt_metacallEN11QMetaObject4CallEiPPv@Qt_5 5.10.1
 _ZN8Qt3DCore9QArmature11qt_metacastEPKc@Qt_5 5.10.1
 _ZN8Qt3DCore9QArmature11setSkeletonEPNS_17QAbstractSkeletonE@Qt_5 5.10.1
 _ZN8Qt3DCore9QArmature15skeletonChangedEPNS_17QAbstractSkeletonE@Qt_5 5.10.1
 _ZN8Qt3DCore9QArmature16staticMetaObjectE@Qt_5 5.10.1
 _ZN8Qt3DCore9QArmatureC1EPNS_5QNodeE@Qt_5 5.10.1
 _ZN8Qt3DCore9QArmatureC2EPNS_5QNodeE@Qt_5 5.10.1
 _ZN8Qt3DCore9QArmatureD0Ev@Qt_5 5.10.1
 _ZN8Qt3DCore9QArmatureD1Ev@Qt_5 5.10.1
 _ZN8Qt3DCore9QArmatureD2Ev@Qt_5 5.10.1
 _ZN8Qt3DCore9QSkeleton11qt_metacallEN11QMetaObject4CallEiPPv@Qt_5 5.10.1
 _ZN8Qt3DCore9QSkeleton11qt_metacastEPKc@Qt_5 5.10.1
 _ZN8Qt3DCore9QSkeleton12setRootJointEPNS_6QJointE@Qt_5 5.10.1
 _ZN8Qt3DCore9QSkeleton16rootJointChangedEPNS_6QJointE@Qt_5 5.10.1
 _ZN8Qt3DCore9QSkeleton16staticMetaObjectE@Qt_5 5.10.1
 _ZN8Qt3DCore9QSkeletonC1EPNS_5QNodeE@Qt_5 5.10.1
 _ZN8Qt3DCore9QSkeletonC2EPNS_5QNodeE@Qt_5 5.10.1
 _ZN8Qt3DCore9QSkeletonD0Ev@Qt_5 5.10.1
 _ZN8Qt3DCore9QSkeletonD1Ev@Qt_5 5.10.1
 _ZN8Qt3DCore9QSkeletonD2Ev@Qt_5 5.10.1
 _ZN8Qt3DCorelsE6QDebugNS_7QNodeIdE@Qt_5 5.7.1~20161122
 (arch=amd64 x32)_ZN8Qt3DCorelsE6QDebugRKNS_12Vector3D_SSEE@Qt_5 5.10.1
 (arch=amd64 x32)_ZN8Qt3DCorelsE6QDebugRKNS_12Vector4D_SSEE@Qt_5 5.10.1
 (arch=amd64 x32)_ZN8Qt3DCorelsE6QDebugRKNS_13Matrix4x4_SSEE@Qt_5 5.10.1
 _ZNK8Qt3DCore10QAspectJob12dependenciesEv@Qt_5 5.7.1~20161122
 _ZNK8Qt3DCore10QComponent10metaObjectEv@Qt_5 5.7.1~20161122
 _ZNK8Qt3DCore10QComponent11isShareableEv@Qt_5 5.7.1~20161122
 _ZNK8Qt3DCore10QComponent8entitiesEv@Qt_5 5.7.1~20161122
 _ZNK8Qt3DCore10QTransform10metaObjectEv@Qt_5 5.7.1~20161122
 _ZNK8Qt3DCore10QTransform11translationEv@Qt_5 5.7.1~20161122
 _ZNK8Qt3DCore10QTransform11worldMatrixEv@Qt_5 5.14.2
 _ZNK8Qt3DCore10QTransform24createNodeCreationChangeEv@Qt_5 5.7.1~20161122
 _ZNK8Qt3DCore10QTransform5scaleEv@Qt_5 5.7.1~20161122
 _ZNK8Qt3DCore10QTransform6matrixEv@Qt_5 5.7.1~20161122
 _ZNK8Qt3DCore10QTransform7scale3DEv@Qt_5 5.7.1~20161122
 _ZNK8Qt3DCore10QTransform8rotationEv@Qt_5 5.7.1~20161122
 _ZNK8Qt3DCore10QTransform9rotationXEv@Qt_5 5.7.1~20161122
 _ZNK8Qt3DCore10QTransform9rotationYEv@Qt_5 5.7.1~20161122
 _ZNK8Qt3DCore10QTransform9rotationZEv@Qt_5 5.7.1~20161122
 _ZNK8Qt3DCore12QBackendNode4modeEv@Qt_5 5.7.1~20161122
 _ZNK8Qt3DCore12QBackendNode6peerIdEv@Qt_5 5.7.1~20161122
 _ZNK8Qt3DCore12QBackendNode9isEnabledEv@Qt_5 5.7.1~20161122
 _ZNK8Qt3DCore12QNodeCommand4dataEv@Qt_5 5.10.1
 _ZNK8Qt3DCore12QNodeCommand4nameEv@Qt_5 5.10.1
 _ZNK8Qt3DCore12QNodeCommand9commandIdEv@Qt_5 5.10.1
 _ZNK8Qt3DCore12QNodeCommand9inReplyToEv@Qt_5 5.10.1
 _ZNK8Qt3DCore12QSceneChange13deliveryFlagsEv@Qt_5 5.7.1~20161122
 _ZNK8Qt3DCore12QSceneChange4typeEv@Qt_5 5.7.1~20161122
 _ZNK8Qt3DCore12QSceneChange9subjectIdEv@Qt_5 5.7.1~20161122
 (arch=amd64 x32)_ZNK8Qt3DCore12Vector3D_SSE7projectERKNS_13Matrix4x4_SSEES3_RK5QRect@Qt_5 5.10.1
 (arch=amd64 x32)_ZNK8Qt3DCore12Vector3D_SSE9unprojectERKNS_13Matrix4x4_SSEES3_RK5QRect@Qt_5 5.10.1
 _ZNK8Qt3DCore13QAspectEngine10metaObjectEv@Qt_5 5.7.1~20161122
 _ZNK8Qt3DCore13QAspectEngine10rootEntityEv@Qt_5 5.7.1~20161122
 _ZNK8Qt3DCore13QAspectEngine7aspectsEv@Qt_5 5.7.1~20161122
 _ZNK8Qt3DCore13QAspectEngine7runModeEv@Qt_5 5.14.2
 _ZNK8Qt3DCore15QAbstractAspect10metaObjectEv@Qt_5 5.7.1~20161122
 _ZNK8Qt3DCore15QAbstractAspect12rootEntityIdEv@Qt_5 5.7.1~20161122
 _ZNK8Qt3DCore15QSkeletonLoader10metaObjectEv@Qt_5 5.10.1
 _ZNK8Qt3DCore15QSkeletonLoader21isCreateJointsEnabledEv@Qt_5 5.10.1
 _ZNK8Qt3DCore15QSkeletonLoader24createNodeCreationChangeEv@Qt_5 5.10.1
 _ZNK8Qt3DCore15QSkeletonLoader6sourceEv@Qt_5 5.10.1
 _ZNK8Qt3DCore15QSkeletonLoader6statusEv@Qt_5 5.10.1
 _ZNK8Qt3DCore15QSkeletonLoader9rootJointEv@Qt_5 5.10.1
 _ZNK8Qt3DCore17QAbstractSkeleton10jointCountEv@Qt_5 5.10.1
 _ZNK8Qt3DCore17QAbstractSkeleton10metaObjectEv@Qt_5 5.10.1
 _ZNK8Qt3DCore20QNodeDestroyedChange18subtreeIdsAndTypesEv@Qt_5 5.7.1~20161122
 _ZNK8Qt3DCore21QComponentAddedChange11componentIdEv@Qt_5 5.7.1~20161122
 _ZNK8Qt3DCore21QComponentAddedChange19componentMetaObjectEv@Qt_5 5.7.1~20161122
 _ZNK8Qt3DCore21QComponentAddedChange8entityIdEv@Qt_5 5.7.1~20161122
 _ZNK8Qt3DCore22QNodeCreatedChangeBase10metaObjectEv@Qt_5 5.7.1~20161122
 _ZNK8Qt3DCore22QNodeCreatedChangeBase13isNodeEnabledEv@Qt_5 5.7.1~20161122
 _ZNK8Qt3DCore22QNodeCreatedChangeBase8parentIdEv@Qt_5 5.7.1~20161122
 _ZNK8Qt3DCore22QPropertyUpdatedChange5valueEv@Qt_5 5.7.1~20161122
 _ZNK8Qt3DCore23QComponentRemovedChange11componentIdEv@Qt_5 5.7.1~20161122
 _ZNK8Qt3DCore23QComponentRemovedChange19componentMetaObjectEv@Qt_5 5.7.1~20161122
 _ZNK8Qt3DCore23QComponentRemovedChange8entityIdEv@Qt_5 5.7.1~20161122
 _ZNK8Qt3DCore24QPropertyNodeAddedChange10metaObjectEv@Qt_5 5.7.1~20161122
 _ZNK8Qt3DCore24QPropertyNodeAddedChange11addedNodeIdEv@Qt_5 5.7.1~20161122
 _ZNK8Qt3DCore25QPropertyValueAddedChange10addedValueEv@Qt_5 5.7.1~20161122
 _ZNK8Qt3DCore26QPropertyNodeRemovedChange10metaObjectEv@Qt_5 5.7.1~20161122
 _ZNK8Qt3DCore26QPropertyNodeRemovedChange13removedNodeIdEv@Qt_5 5.7.1~20161122
 _ZNK8Qt3DCore27QPropertyValueRemovedChange12removedValueEv@Qt_5 5.7.1~20161122
 _ZNK8Qt3DCore29QDynamicPropertyUpdatedChange12propertyNameEv@Qt_5 5.7.1~20161122
 _ZNK8Qt3DCore29QDynamicPropertyUpdatedChange5valueEv@Qt_5 5.7.1~20161122
 _ZNK8Qt3DCore32QStaticPropertyUpdatedChangeBase12propertyNameEv@Qt_5 5.7.1~20161122
 _ZNK8Qt3DCore35QStaticPropertyValueAddedChangeBase12propertyNameEv@Qt_5 5.7.1~20161122
 _ZNK8Qt3DCore37QStaticPropertyValueRemovedChangeBase12propertyNameEv@Qt_5 5.7.1~20161122
 _ZNK8Qt3DCore5QNode10childNodesEv@Qt_5 5.7.1~20161122
 _ZNK8Qt3DCore5QNode10metaObjectEv@Qt_5 5.7.1~20161122
 _ZNK8Qt3DCore5QNode10parentNodeEv@Qt_5 5.7.1~20161122
 _ZNK8Qt3DCore5QNode16propertyTrackingERK7QString@Qt_5 5.9.0
 _ZNK8Qt3DCore5QNode20notificationsBlockedEv@Qt_5 5.7.1~20161122
 _ZNK8Qt3DCore5QNode24createNodeCreationChangeEv@Qt_5 5.7.1~20161122
 _ZNK8Qt3DCore5QNode27defaultPropertyTrackingModeEv@Qt_5 5.9.0
 _ZNK8Qt3DCore5QNode2idEv@Qt_5 5.7.1~20161122
 _ZNK8Qt3DCore5QNode9isEnabledEv@Qt_5 5.7.1~20161122
 _ZNK8Qt3DCore6QJoint10metaObjectEv@Qt_5 5.10.1
 _ZNK8Qt3DCore6QJoint11childJointsEv@Qt_5 5.10.1
 _ZNK8Qt3DCore6QJoint11translationEv@Qt_5 5.10.1
 _ZNK8Qt3DCore6QJoint17inverseBindMatrixEv@Qt_5 5.10.1
 _ZNK8Qt3DCore6QJoint24createNodeCreationChangeEv@Qt_5 5.10.1
 _ZNK8Qt3DCore6QJoint4nameEv@Qt_5 5.10.1
 _ZNK8Qt3DCore6QJoint5scaleEv@Qt_5 5.10.1
 _ZNK8Qt3DCore6QJoint8rotationEv@Qt_5 5.10.1
 _ZNK8Qt3DCore6QJoint9rotationXEv@Qt_5 5.10.1
 _ZNK8Qt3DCore6QJoint9rotationYEv@Qt_5 5.10.1
 _ZNK8Qt3DCore6QJoint9rotationZEv@Qt_5 5.10.1
 _ZNK8Qt3DCore7QEntity10componentsEv@Qt_5 5.7.1~20161122
 _ZNK8Qt3DCore7QEntity10metaObjectEv@Qt_5 5.7.1~20161122
 _ZNK8Qt3DCore7QEntity12parentEntityEv@Qt_5 5.7.1~20161122
 _ZNK8Qt3DCore7QEntity24createNodeCreationChangeEv@Qt_5 5.7.1~20161122
 _ZNK8Qt3DCore9QArmature10metaObjectEv@Qt_5 5.10.1
 _ZNK8Qt3DCore9QArmature24createNodeCreationChangeEv@Qt_5 5.10.1
 _ZNK8Qt3DCore9QArmature8skeletonEv@Qt_5 5.10.1
 _ZNK8Qt3DCore9QSkeleton10metaObjectEv@Qt_5 5.10.1
 _ZNK8Qt3DCore9QSkeleton24createNodeCreationChangeEv@Qt_5 5.10.1
 _ZNK8Qt3DCore9QSkeleton9rootJointEv@Qt_5 5.10.1
 _ZTIN8Qt3DCore10QAspectJobE@Qt_5 5.7.1~20161122
 _ZTIN8Qt3DCore10QComponentE@Qt_5 5.7.1~20161122
 _ZTIN8Qt3DCore10QTransformE@Qt_5 5.7.1~20161122
 _ZTIN8Qt3DCore12QBackendNodeE@Qt_5 5.7.1~20161122
 _ZTIN8Qt3DCore12QNodeCommandE@Qt_5 5.10.1
 _ZTIN8Qt3DCore12QSceneChangeE@Qt_5 5.7.1~20161122
 _ZTIN8Qt3DCore13QAspectEngineE@Qt_5 5.7.1~20161122
 _ZTIN8Qt3DCore15QAbstractAspectE@Qt_5 5.7.1~20161122
 _ZTIN8Qt3DCore15QSkeletonLoaderE@Qt_5 5.10.1
 _ZTIN8Qt3DCore17QAbstractSkeletonE@Qt_5 5.10.1
 _ZTIN8Qt3DCore18QBackendNodeMapperE@Qt_5 5.7.1~20161122
 _ZTIN8Qt3DCore20QNodeDestroyedChangeE@Qt_5 5.7.1~20161122
 _ZTIN8Qt3DCore21QComponentAddedChangeE@Qt_5 5.7.1~20161122
 _ZTIN8Qt3DCore22QNodeCreatedChangeBaseE@Qt_5 5.7.1~20161122
 _ZTIN8Qt3DCore22QPropertyUpdatedChangeE@Qt_5 5.7.1~20161122
 _ZTIN8Qt3DCore23QComponentRemovedChangeE@Qt_5 5.7.1~20161122
 _ZTIN8Qt3DCore24QPropertyNodeAddedChangeE@Qt_5 5.7.1~20161122
 _ZTIN8Qt3DCore25QPropertyValueAddedChangeE@Qt_5 5.7.1~20161122
 _ZTIN8Qt3DCore26QPropertyNodeRemovedChangeE@Qt_5 5.7.1~20161122
 _ZTIN8Qt3DCore26QPropertyUpdatedChangeBaseE@Qt_5 5.7.1~20161122
 _ZTIN8Qt3DCore27QPropertyValueRemovedChangeE@Qt_5 5.7.1~20161122
 _ZTIN8Qt3DCore29QDynamicPropertyUpdatedChangeE@Qt_5 5.7.1~20161122
 _ZTIN8Qt3DCore29QPropertyValueAddedChangeBaseE@Qt_5 5.7.1~20161122
 _ZTIN8Qt3DCore31QPropertyValueRemovedChangeBaseE@Qt_5 5.7.1~20161122
 _ZTIN8Qt3DCore32QStaticPropertyUpdatedChangeBaseE@Qt_5 5.7.1~20161122
 _ZTIN8Qt3DCore35QStaticPropertyValueAddedChangeBaseE@Qt_5 5.7.1~20161122
 _ZTIN8Qt3DCore37QStaticPropertyValueRemovedChangeBaseE@Qt_5 5.7.1~20161122
 _ZTIN8Qt3DCore5QNodeE@Qt_5 5.7.1~20161122
 _ZTIN8Qt3DCore6QJointE@Qt_5 5.10.1
 _ZTIN8Qt3DCore7QEntityE@Qt_5 5.7.1~20161122
 _ZTIN8Qt3DCore9QArmatureE@Qt_5 5.10.1
 _ZTIN8Qt3DCore9QSkeletonE@Qt_5 5.10.1
 _ZTSN8Qt3DCore10QAspectJobE@Qt_5 5.7.1~20161122
 _ZTSN8Qt3DCore10QComponentE@Qt_5 5.7.1~20161122
 _ZTSN8Qt3DCore10QTransformE@Qt_5 5.7.1~20161122
 _ZTSN8Qt3DCore12QBackendNodeE@Qt_5 5.7.1~20161122
 _ZTSN8Qt3DCore12QNodeCommandE@Qt_5 5.10.1
 _ZTSN8Qt3DCore12QSceneChangeE@Qt_5 5.7.1~20161122
 _ZTSN8Qt3DCore13QAspectEngineE@Qt_5 5.7.1~20161122
 _ZTSN8Qt3DCore15QAbstractAspectE@Qt_5 5.7.1~20161122
 _ZTSN8Qt3DCore15QSkeletonLoaderE@Qt_5 5.10.1
 _ZTSN8Qt3DCore17QAbstractSkeletonE@Qt_5 5.10.1
 _ZTSN8Qt3DCore18QBackendNodeMapperE@Qt_5 5.7.1~20161122
 _ZTSN8Qt3DCore20QNodeDestroyedChangeE@Qt_5 5.7.1~20161122
 _ZTSN8Qt3DCore21QComponentAddedChangeE@Qt_5 5.7.1~20161122
 _ZTSN8Qt3DCore22QNodeCreatedChangeBaseE@Qt_5 5.7.1~20161122
 _ZTSN8Qt3DCore22QPropertyUpdatedChangeE@Qt_5 5.7.1~20161122
 _ZTSN8Qt3DCore23QComponentRemovedChangeE@Qt_5 5.7.1~20161122
 _ZTSN8Qt3DCore24QPropertyNodeAddedChangeE@Qt_5 5.7.1~20161122
 _ZTSN8Qt3DCore25QPropertyValueAddedChangeE@Qt_5 5.7.1~20161122
 _ZTSN8Qt3DCore26QPropertyNodeRemovedChangeE@Qt_5 5.7.1~20161122
 _ZTSN8Qt3DCore26QPropertyUpdatedChangeBaseE@Qt_5 5.7.1~20161122
 _ZTSN8Qt3DCore27QPropertyValueRemovedChangeE@Qt_5 5.7.1~20161122
 _ZTSN8Qt3DCore29QDynamicPropertyUpdatedChangeE@Qt_5 5.7.1~20161122
 _ZTSN8Qt3DCore29QPropertyValueAddedChangeBaseE@Qt_5 5.7.1~20161122
 _ZTSN8Qt3DCore31QPropertyValueRemovedChangeBaseE@Qt_5 5.7.1~20161122
 _ZTSN8Qt3DCore32QStaticPropertyUpdatedChangeBaseE@Qt_5 5.7.1~20161122
 _ZTSN8Qt3DCore35QStaticPropertyValueAddedChangeBaseE@Qt_5 5.7.1~20161122
 _ZTSN8Qt3DCore37QStaticPropertyValueRemovedChangeBaseE@Qt_5 5.7.1~20161122
 _ZTSN8Qt3DCore5QNodeE@Qt_5 5.7.1~20161122
 _ZTSN8Qt3DCore6QJointE@Qt_5 5.10.1
 _ZTSN8Qt3DCore7QEntityE@Qt_5 5.7.1~20161122
 _ZTSN8Qt3DCore9QArmatureE@Qt_5 5.10.1
 _ZTSN8Qt3DCore9QSkeletonE@Qt_5 5.10.1
 _ZTVN8Qt3DCore10QAspectJobE@Qt_5 5.7.1~20161122
 _ZTVN8Qt3DCore10QComponentE@Qt_5 5.7.1~20161122
 _ZTVN8Qt3DCore10QTransformE@Qt_5 5.7.1~20161122
 _ZTVN8Qt3DCore12QBackendNodeE@Qt_5 5.7.1~20161122
 _ZTVN8Qt3DCore12QNodeCommandE@Qt_5 5.10.1
 _ZTVN8Qt3DCore12QSceneChangeE@Qt_5 5.7.1~20161122
 _ZTVN8Qt3DCore13QAspectEngineE@Qt_5 5.7.1~20161122
 _ZTVN8Qt3DCore15QAbstractAspectE@Qt_5 5.7.1~20161122
 _ZTVN8Qt3DCore15QSkeletonLoaderE@Qt_5 5.10.1
 _ZTVN8Qt3DCore17QAbstractSkeletonE@Qt_5 5.10.1
 _ZTVN8Qt3DCore18QBackendNodeMapperE@Qt_5 5.7.1~20161122
 _ZTVN8Qt3DCore20QNodeDestroyedChangeE@Qt_5 5.7.1~20161122
 _ZTVN8Qt3DCore21QComponentAddedChangeE@Qt_5 5.7.1~20161122
 _ZTVN8Qt3DCore22QNodeCreatedChangeBaseE@Qt_5 5.7.1~20161122
 _ZTVN8Qt3DCore22QPropertyUpdatedChangeE@Qt_5 5.7.1~20161122
 _ZTVN8Qt3DCore23QComponentRemovedChangeE@Qt_5 5.7.1~20161122
 _ZTVN8Qt3DCore24QPropertyNodeAddedChangeE@Qt_5 5.7.1~20161122
 _ZTVN8Qt3DCore25QPropertyValueAddedChangeE@Qt_5 5.7.1~20161122
 _ZTVN8Qt3DCore26QPropertyNodeRemovedChangeE@Qt_5 5.7.1~20161122
 _ZTVN8Qt3DCore26QPropertyUpdatedChangeBaseE@Qt_5 5.7.1~20161122
 _ZTVN8Qt3DCore27QPropertyValueRemovedChangeE@Qt_5 5.7.1~20161122
 _ZTVN8Qt3DCore29QDynamicPropertyUpdatedChangeE@Qt_5 5.7.1~20161122
 _ZTVN8Qt3DCore29QPropertyValueAddedChangeBaseE@Qt_5 5.7.1~20161122
 _ZTVN8Qt3DCore31QPropertyValueRemovedChangeBaseE@Qt_5 5.7.1~20161122
 _ZTVN8Qt3DCore32QStaticPropertyUpdatedChangeBaseE@Qt_5 5.7.1~20161122
 _ZTVN8Qt3DCore35QStaticPropertyValueAddedChangeBaseE@Qt_5 5.7.1~20161122
 _ZTVN8Qt3DCore37QStaticPropertyValueRemovedChangeBaseE@Qt_5 5.7.1~20161122
 _ZTVN8Qt3DCore5QNodeE@Qt_5 5.7.1~20161122
 _ZTVN8Qt3DCore6QJointE@Qt_5 5.10.1
 _ZTVN8Qt3DCore7QEntityE@Qt_5 5.7.1~20161122
 _ZTVN8Qt3DCore9QArmatureE@Qt_5 5.10.1
 _ZTVN8Qt3DCore9QSkeletonE@Qt_5 5.10.1
