# SymbolsHelper-Confirmed: 5.15.3 amd64
libQt53DRender.so.5 libqt53drender5 #MINVER#
* Build-Depends-Package: qt3d5-dev
 Qt_5.0@Qt_5.0 5.7.1~20161122
 Qt_5.10@Qt_5.10 5.10.1
 Qt_5.11@Qt_5.11 5.11.1
 Qt_5.12@Qt_5.12 5.12.0
 Qt_5.13@Qt_5.13 5.14.2
 Qt_5.14@Qt_5.14 5.14.2
 Qt_5.15@Qt_5.15 5.15.1
 Qt_5.1@Qt_5.1 5.7.1~20161122
 Qt_5.2@Qt_5.2 5.7.1~20161122
 Qt_5.3@Qt_5.3 5.7.1~20161122
 Qt_5.4@Qt_5.4 5.7.1~20161122
 Qt_5.5@Qt_5.5 5.7.1~20161122
 Qt_5.6@Qt_5.6 5.7.1~20161122
 Qt_5.7@Qt_5.7 5.7.1~20161122
 Qt_5.8@Qt_5.8 5.9.0
 Qt_5.9@Qt_5.9 5.9.0
 Qt_5@Qt_5 5.7.1~20161122
 (symver)Qt_5_PRIVATE_API 0
 _ZN10Qt3DRender10QAlphaTest11qt_metacallEN11QMetaObject4CallEiPPv@Qt_5 5.7.1~20161122
 _ZN10Qt3DRender10QAlphaTest11qt_metacastEPKc@Qt_5 5.7.1~20161122
 _ZN10Qt3DRender10QAlphaTest16setAlphaFunctionENS0_13AlphaFunctionE@Qt_5 5.7.1~20161122
 _ZN10Qt3DRender10QAlphaTest16staticMetaObjectE@Qt_5 5.7.1~20161122
 _ZN10Qt3DRender10QAlphaTest17setReferenceValueEf@Qt_5 5.7.1~20161122
 _ZN10Qt3DRender10QAlphaTest20alphaFunctionChangedENS0_13AlphaFunctionE@Qt_5 5.7.1~20161122
 _ZN10Qt3DRender10QAlphaTest21referenceValueChangedEf@Qt_5 5.7.1~20161122
 _ZN10Qt3DRender10QAlphaTestC1EPN8Qt3DCore5QNodeE@Qt_5 5.7.1~20161122
 _ZN10Qt3DRender10QAlphaTestC2EPN8Qt3DCore5QNodeE@Qt_5 5.7.1~20161122
 _ZN10Qt3DRender10QAlphaTestD0Ev@Qt_5 5.7.1~20161122
 _ZN10Qt3DRender10QAlphaTestD1Ev@Qt_5 5.7.1~20161122
 _ZN10Qt3DRender10QAlphaTestD2Ev@Qt_5 5.7.1~20161122
 _ZN10Qt3DRender10QAttribute10setDivisorEj@Qt_5 5.7.1~20161122
 _ZN10Qt3DRender10QAttribute11nameChangedERK7QString@Qt_5 5.7.1~20161122
 _ZN10Qt3DRender10QAttribute11qt_metacallEN11QMetaObject4CallEiPPv@Qt_5 5.7.1~20161122
 _ZN10Qt3DRender10QAttribute11qt_metacastEPKc@Qt_5 5.7.1~20161122
 _ZN10Qt3DRender10QAttribute11setDataSizeEj@Qt_5 5.7.1~20161122
 _ZN10Qt3DRender10QAttribute11setDataTypeENS0_14VertexBaseTypeE@Qt_5 5.7.1~20161122
 _ZN10Qt3DRender10QAttribute12countChangedEj@Qt_5 5.7.1~20161122
 _ZN10Qt3DRender10QAttribute13bufferChangedEPNS_7QBufferE@Qt_5 5.7.1~20161122
 _ZN10Qt3DRender10QAttribute13setByteOffsetEj@Qt_5 5.7.1~20161122
 _ZN10Qt3DRender10QAttribute13setByteStrideEj@Qt_5 5.7.1~20161122
 _ZN10Qt3DRender10QAttribute13setVertexSizeEj@Qt_5 5.9.0
 _ZN10Qt3DRender10QAttribute14divisorChangedEj@Qt_5 5.7.1~20161122
 _ZN10Qt3DRender10QAttribute15dataSizeChangedEj@Qt_5 5.7.1~20161122
 _ZN10Qt3DRender10QAttribute15dataTypeChangedENS0_14VertexBaseTypeE@Qt_5 5.7.1~20161122
 _ZN10Qt3DRender10QAttribute16setAttributeTypeENS0_13AttributeTypeE@Qt_5 5.7.1~20161122
 _ZN10Qt3DRender10QAttribute16staticMetaObjectE@Qt_5 5.7.1~20161122
 _ZN10Qt3DRender10QAttribute17byteOffsetChangedEj@Qt_5 5.7.1~20161122
 _ZN10Qt3DRender10QAttribute17byteStrideChangedEj@Qt_5 5.7.1~20161122
 _ZN10Qt3DRender10QAttribute17setVertexBaseTypeENS0_14VertexBaseTypeE@Qt_5 5.9.0
 _ZN10Qt3DRender10QAttribute17vertexSizeChangedEj@Qt_5 5.9.0
 _ZN10Qt3DRender10QAttribute20attributeTypeChangedENS0_13AttributeTypeE@Qt_5 5.7.1~20161122
 _ZN10Qt3DRender10QAttribute21vertexBaseTypeChangedENS0_14VertexBaseTypeE@Qt_5 5.9.0
 _ZN10Qt3DRender10QAttribute25defaultColorAttributeNameEv@Qt_5 5.7.1~20161122
 _ZN10Qt3DRender10QAttribute26defaultNormalAttributeNameEv@Qt_5 5.7.1~20161122
 _ZN10Qt3DRender10QAttribute27defaultTangentAttributeNameEv@Qt_5 5.7.1~20161122
 _ZN10Qt3DRender10QAttribute28defaultPositionAttributeNameEv@Qt_5 5.7.1~20161122
 _ZN10Qt3DRender10QAttribute32defaultJointIndicesAttributeNameEv@Qt_5 5.10.1
 _ZN10Qt3DRender10QAttribute32defaultJointWeightsAttributeNameEv@Qt_5 5.10.1
 _ZN10Qt3DRender10QAttribute37defaultTextureCoordinateAttributeNameEv@Qt_5 5.7.1~20161122
 _ZN10Qt3DRender10QAttribute38defaultTextureCoordinate1AttributeNameEv@Qt_5 5.11.1
 _ZN10Qt3DRender10QAttribute38defaultTextureCoordinate2AttributeNameEv@Qt_5 5.11.1
 _ZN10Qt3DRender10QAttribute7setNameERK7QString@Qt_5 5.7.1~20161122
 _ZN10Qt3DRender10QAttribute8setCountEj@Qt_5 5.7.1~20161122
 _ZN10Qt3DRender10QAttribute9setBufferEPNS_7QBufferE@Qt_5 5.7.1~20161122
 _ZN10Qt3DRender10QAttributeC1EPN8Qt3DCore5QNodeE@Qt_5 5.7.1~20161122
 _ZN10Qt3DRender10QAttributeC1EPNS_7QBufferENS0_14VertexBaseTypeEjjjjPN8Qt3DCore5QNodeE@Qt_5 5.7.1~20161122
 _ZN10Qt3DRender10QAttributeC1EPNS_7QBufferERK7QStringNS0_14VertexBaseTypeEjjjjPN8Qt3DCore5QNodeE@Qt_5 5.7.1~20161122
 _ZN10Qt3DRender10QAttributeC2EPN8Qt3DCore5QNodeE@Qt_5 5.7.1~20161122
 _ZN10Qt3DRender10QAttributeC2EPNS_7QBufferENS0_14VertexBaseTypeEjjjjPN8Qt3DCore5QNodeE@Qt_5 5.7.1~20161122
 _ZN10Qt3DRender10QAttributeC2EPNS_7QBufferERK7QStringNS0_14VertexBaseTypeEjjjjPN8Qt3DCore5QNodeE@Qt_5 5.7.1~20161122
 _ZN10Qt3DRender10QAttributeD0Ev@Qt_5 5.7.1~20161122
 _ZN10Qt3DRender10QAttributeD1Ev@Qt_5 5.7.1~20161122
 _ZN10Qt3DRender10QAttributeD2Ev@Qt_5 5.7.1~20161122
 _ZN10Qt3DRender10QClipPlane11qt_metacallEN11QMetaObject4CallEiPPv@Qt_5 5.7.1~20161122
 _ZN10Qt3DRender10QClipPlane11qt_metacastEPKc@Qt_5 5.7.1~20161122
 _ZN10Qt3DRender10QClipPlane11setDistanceEf@Qt_5 5.7.1~20161122
 _ZN10Qt3DRender10QClipPlane13normalChangedE9QVector3D@Qt_5 5.7.1~20161122
 _ZN10Qt3DRender10QClipPlane13setPlaneIndexEi@Qt_5 5.7.1~20161122
 _ZN10Qt3DRender10QClipPlane15distanceChangedEf@Qt_5 5.7.1~20161122
 _ZN10Qt3DRender10QClipPlane16staticMetaObjectE@Qt_5 5.7.1~20161122
 _ZN10Qt3DRender10QClipPlane17planeIndexChangedEi@Qt_5 5.7.1~20161122
 _ZN10Qt3DRender10QClipPlane9setNormalE9QVector3D@Qt_5 5.7.1~20161122
 _ZN10Qt3DRender10QClipPlaneC1EPN8Qt3DCore5QNodeE@Qt_5 5.7.1~20161122
 _ZN10Qt3DRender10QClipPlaneC2EPN8Qt3DCore5QNodeE@Qt_5 5.7.1~20161122
 _ZN10Qt3DRender10QClipPlaneD0Ev@Qt_5 5.7.1~20161122
 _ZN10Qt3DRender10QClipPlaneD1Ev@Qt_5 5.7.1~20161122
 _ZN10Qt3DRender10QClipPlaneD2Ev@Qt_5 5.7.1~20161122
 _ZN10Qt3DRender10QColorMask11qt_metacallEN11QMetaObject4CallEiPPv@Qt_5 5.7.1~20161122
 _ZN10Qt3DRender10QColorMask11qt_metacastEPKc@Qt_5 5.7.1~20161122
 _ZN10Qt3DRender10QColorMask12setRedMaskedEb@Qt_5 5.7.1~20161122
 _ZN10Qt3DRender10QColorMask13setBlueMaskedEb@Qt_5 5.7.1~20161122
 _ZN10Qt3DRender10QColorMask14setAlphaMaskedEb@Qt_5 5.7.1~20161122
 _ZN10Qt3DRender10QColorMask14setGreenMaskedEb@Qt_5 5.7.1~20161122
 _ZN10Qt3DRender10QColorMask16redMaskedChangedEb@Qt_5 5.7.1~20161122
 _ZN10Qt3DRender10QColorMask16staticMetaObjectE@Qt_5 5.7.1~20161122
 _ZN10Qt3DRender10QColorMask17blueMaskedChangedEb@Qt_5 5.7.1~20161122
 _ZN10Qt3DRender10QColorMask18alphaMaskedChangedEb@Qt_5 5.7.1~20161122
 _ZN10Qt3DRender10QColorMask18greenMaskedChangedEb@Qt_5 5.7.1~20161122
 _ZN10Qt3DRender10QColorMaskC1EPN8Qt3DCore5QNodeE@Qt_5 5.7.1~20161122
 _ZN10Qt3DRender10QColorMaskC2EPN8Qt3DCore5QNodeE@Qt_5 5.7.1~20161122
 _ZN10Qt3DRender10QColorMaskD0Ev@Qt_5 5.7.1~20161122
 _ZN10Qt3DRender10QColorMaskD1Ev@Qt_5 5.7.1~20161122
 _ZN10Qt3DRender10QColorMaskD2Ev@Qt_5 5.7.1~20161122
 _ZN10Qt3DRender10QDepthTest11qt_metacallEN11QMetaObject4CallEiPPv@Qt_5 5.7.1~20161122
 _ZN10Qt3DRender10QDepthTest11qt_metacastEPKc@Qt_5 5.7.1~20161122
 _ZN10Qt3DRender10QDepthTest16setDepthFunctionENS0_13DepthFunctionE@Qt_5 5.7.1~20161122
 _ZN10Qt3DRender10QDepthTest16staticMetaObjectE@Qt_5 5.7.1~20161122
 _ZN10Qt3DRender10QDepthTest20depthFunctionChangedENS0_13DepthFunctionE@Qt_5 5.7.1~20161122
 _ZN10Qt3DRender10QDepthTestC1EPN8Qt3DCore5QNodeE@Qt_5 5.7.1~20161122
 _ZN10Qt3DRender10QDepthTestC2EPN8Qt3DCore5QNodeE@Qt_5 5.7.1~20161122
 _ZN10Qt3DRender10QDepthTestD0Ev@Qt_5 5.7.1~20161122
 _ZN10Qt3DRender10QDepthTestD1Ev@Qt_5 5.7.1~20161122
 _ZN10Qt3DRender10QDepthTestD2Ev@Qt_5 5.7.1~20161122
 _ZN10Qt3DRender10QDithering11qt_metacallEN11QMetaObject4CallEiPPv@Qt_5 5.7.1~20161122
 _ZN10Qt3DRender10QDithering11qt_metacastEPKc@Qt_5 5.7.1~20161122
 _ZN10Qt3DRender10QDithering16staticMetaObjectE@Qt_5 5.7.1~20161122
 _ZN10Qt3DRender10QDitheringC1EPN8Qt3DCore5QNodeE@Qt_5 5.7.1~20161122
 _ZN10Qt3DRender10QDitheringC2EPN8Qt3DCore5QNodeE@Qt_5 5.7.1~20161122
 _ZN10Qt3DRender10QDitheringD0Ev@Qt_5 5.7.1~20161122
 _ZN10Qt3DRender10QDitheringD1Ev@Qt_5 5.7.1~20161122
 _ZN10Qt3DRender10QDitheringD2Ev@Qt_5 5.7.1~20161122
 _ZN10Qt3DRender10QFilterKey11nameChangedERK7QString@Qt_5 5.7.1~20161122
 _ZN10Qt3DRender10QFilterKey11qt_metacallEN11QMetaObject4CallEiPPv@Qt_5 5.7.1~20161122
 _ZN10Qt3DRender10QFilterKey11qt_metacastEPKc@Qt_5 5.7.1~20161122
 _ZN10Qt3DRender10QFilterKey12valueChangedERK8QVariant@Qt_5 5.7.1~20161122
 _ZN10Qt3DRender10QFilterKey16staticMetaObjectE@Qt_5 5.7.1~20161122
 _ZN10Qt3DRender10QFilterKey7setNameERK7QString@Qt_5 5.7.1~20161122
 _ZN10Qt3DRender10QFilterKey8setValueERK8QVariant@Qt_5 5.7.1~20161122
 _ZN10Qt3DRender10QFilterKeyC1EPN8Qt3DCore5QNodeE@Qt_5 5.7.1~20161122
 _ZN10Qt3DRender10QFilterKeyC2EPN8Qt3DCore5QNodeE@Qt_5 5.7.1~20161122
 _ZN10Qt3DRender10QFilterKeyD0Ev@Qt_5 5.7.1~20161122
 _ZN10Qt3DRender10QFilterKeyD1Ev@Qt_5 5.7.1~20161122
 _ZN10Qt3DRender10QFilterKeyD2Ev@Qt_5 5.7.1~20161122
 _ZN10Qt3DRender10QFrontFace11qt_metacallEN11QMetaObject4CallEiPPv@Qt_5 5.7.1~20161122
 _ZN10Qt3DRender10QFrontFace11qt_metacastEPKc@Qt_5 5.7.1~20161122
 _ZN10Qt3DRender10QFrontFace12setDirectionENS0_16WindingDirectionE@Qt_5 5.7.1~20161122
 _ZN10Qt3DRender10QFrontFace16directionChangedENS0_16WindingDirectionE@Qt_5 5.7.1~20161122
 _ZN10Qt3DRender10QFrontFace16staticMetaObjectE@Qt_5 5.7.1~20161122
 _ZN10Qt3DRender10QFrontFaceC1EPN8Qt3DCore5QNodeE@Qt_5 5.7.1~20161122
 _ZN10Qt3DRender10QFrontFaceC2EPN8Qt3DCore5QNodeE@Qt_5 5.7.1~20161122
 _ZN10Qt3DRender10QFrontFaceD0Ev@Qt_5 5.7.1~20161122
 _ZN10Qt3DRender10QFrontFaceD1Ev@Qt_5 5.7.1~20161122
 _ZN10Qt3DRender10QFrontFaceD2Ev@Qt_5 5.7.1~20161122
 _ZN10Qt3DRender10QLineWidth11qt_metacallEN11QMetaObject4CallEiPPv@Qt_5 5.10.1
 _ZN10Qt3DRender10QLineWidth11qt_metacastEPKc@Qt_5 5.10.1
 _ZN10Qt3DRender10QLineWidth12valueChangedEf@Qt_5 5.10.1
 _ZN10Qt3DRender10QLineWidth13smoothChangedEb@Qt_5 5.10.1
 _ZN10Qt3DRender10QLineWidth16staticMetaObjectE@Qt_5 5.10.1
 _ZN10Qt3DRender10QLineWidth8setValueEf@Qt_5 5.10.1
 _ZN10Qt3DRender10QLineWidth9setSmoothEb@Qt_5 5.10.1
 _ZN10Qt3DRender10QLineWidthC1EPN8Qt3DCore5QNodeE@Qt_5 5.10.1
 _ZN10Qt3DRender10QLineWidthC2EPN8Qt3DCore5QNodeE@Qt_5 5.10.1
 _ZN10Qt3DRender10QLineWidthD0Ev@Qt_5 5.10.1
 _ZN10Qt3DRender10QLineWidthD1Ev@Qt_5 5.10.1
 _ZN10Qt3DRender10QLineWidthD2Ev@Qt_5 5.10.1
 _ZN10Qt3DRender10QNoPicking11qt_metacallEN11QMetaObject4CallEiPPv@Qt_5 5.14.2
 _ZN10Qt3DRender10QNoPicking11qt_metacastEPKc@Qt_5 5.14.2
 _ZN10Qt3DRender10QNoPicking16staticMetaObjectE@Qt_5 5.14.2
 _ZN10Qt3DRender10QNoPickingC1EPN8Qt3DCore5QNodeE@Qt_5 5.14.2
 _ZN10Qt3DRender10QNoPickingC2EPN8Qt3DCore5QNodeE@Qt_5 5.14.2
 _ZN10Qt3DRender10QNoPickingD0Ev@Qt_5 5.14.2
 _ZN10Qt3DRender10QNoPickingD1Ev@Qt_5 5.14.2
 _ZN10Qt3DRender10QNoPickingD2Ev@Qt_5 5.14.2
 _ZN10Qt3DRender10QParameter11nameChangedERK7QString@Qt_5 5.7.1~20161122
 _ZN10Qt3DRender10QParameter11qt_metacallEN11QMetaObject4CallEiPPv@Qt_5 5.7.1~20161122
 _ZN10Qt3DRender10QParameter11qt_metacastEPKc@Qt_5 5.7.1~20161122
 _ZN10Qt3DRender10QParameter12valueChangedERK8QVariant@Qt_5 5.7.1~20161122
 _ZN10Qt3DRender10QParameter16staticMetaObjectE@Qt_5 5.7.1~20161122
 _ZN10Qt3DRender10QParameter7setNameERK7QString@Qt_5 5.7.1~20161122
 _ZN10Qt3DRender10QParameter8setValueERK8QVariant@Qt_5 5.7.1~20161122
 _ZN10Qt3DRender10QParameterC1EPN8Qt3DCore5QNodeE@Qt_5 5.7.1~20161122
 _ZN10Qt3DRender10QParameterC1ERK7QStringPNS_16QAbstractTextureEPN8Qt3DCore5QNodeE@Qt_5 5.7.1~20161122
 _ZN10Qt3DRender10QParameterC1ERK7QStringRK8QVariantPN8Qt3DCore5QNodeE@Qt_5 5.7.1~20161122
 _ZN10Qt3DRender10QParameterC2EPN8Qt3DCore5QNodeE@Qt_5 5.7.1~20161122
 _ZN10Qt3DRender10QParameterC2ERK7QStringPNS_16QAbstractTextureEPN8Qt3DCore5QNodeE@Qt_5 5.7.1~20161122
 _ZN10Qt3DRender10QParameterC2ERK7QStringRK8QVariantPN8Qt3DCore5QNodeE@Qt_5 5.7.1~20161122
 _ZN10Qt3DRender10QParameterD0Ev@Qt_5 5.7.1~20161122
 _ZN10Qt3DRender10QParameterD1Ev@Qt_5 5.7.1~20161122
 _ZN10Qt3DRender10QParameterD2Ev@Qt_5 5.7.1~20161122
 _ZN10Qt3DRender10QPickEvent11qt_metacallEN11QMetaObject4CallEiPPv@Qt_5 5.7.1~20161122
 _ZN10Qt3DRender10QPickEvent11qt_metacastEPKc@Qt_5 5.7.1~20161122
 _ZN10Qt3DRender10QPickEvent11setAcceptedEb@Qt_5 5.7.1~20161122
 _ZN10Qt3DRender10QPickEvent15acceptedChangedEb@Qt_5 5.7.1~20161122
 _ZN10Qt3DRender10QPickEvent16staticMetaObjectE@Qt_5 5.7.1~20161122
 _ZN10Qt3DRender10QPickEventC1ER14QObjectPrivateP7QObject@Qt_5 5.7.1~20161122
 _ZN10Qt3DRender10QPickEventC1ERK7QPointFRK9QVector3DS6_f@Qt_5 5.7.1~20161122
 _ZN10Qt3DRender10QPickEventC1ERK7QPointFRK9QVector3DS6_fNS0_7ButtonsEii@Qt_5 5.9.0
 _ZN10Qt3DRender10QPickEventC1Ev@Qt_5 5.7.1~20161122
 _ZN10Qt3DRender10QPickEventC2ER14QObjectPrivateP7QObject@Qt_5 5.7.1~20161122
 _ZN10Qt3DRender10QPickEventC2ERK7QPointFRK9QVector3DS6_f@Qt_5 5.7.1~20161122
 _ZN10Qt3DRender10QPickEventC2ERK7QPointFRK9QVector3DS6_fNS0_7ButtonsEii@Qt_5 5.9.0
 _ZN10Qt3DRender10QPickEventC2Ev@Qt_5 5.7.1~20161122
 _ZN10Qt3DRender10QPickEventD0Ev@Qt_5 5.7.1~20161122
 _ZN10Qt3DRender10QPickEventD1Ev@Qt_5 5.7.1~20161122
 _ZN10Qt3DRender10QPickEventD2Ev@Qt_5 5.7.1~20161122
 _ZN10Qt3DRender10QPointSize11qt_metacallEN11QMetaObject4CallEiPPv@Qt_5 5.7.1~20161122
 _ZN10Qt3DRender10QPointSize11qt_metacastEPKc@Qt_5 5.7.1~20161122
 _ZN10Qt3DRender10QPointSize11setSizeModeENS0_8SizeModeE@Qt_5 5.7.1~20161122
 _ZN10Qt3DRender10QPointSize12valueChangedEf@Qt_5 5.7.1~20161122
 _ZN10Qt3DRender10QPointSize15sizeModeChangedENS0_8SizeModeE@Qt_5 5.7.1~20161122
 _ZN10Qt3DRender10QPointSize16staticMetaObjectE@Qt_5 5.7.1~20161122
 _ZN10Qt3DRender10QPointSize8setValueEf@Qt_5 5.7.1~20161122
 _ZN10Qt3DRender10QPointSizeC1EPN8Qt3DCore5QNodeE@Qt_5 5.7.1~20161122
 _ZN10Qt3DRender10QPointSizeC2EPN8Qt3DCore5QNodeE@Qt_5 5.7.1~20161122
 _ZN10Qt3DRender10QPointSizeD0Ev@Qt_5 5.7.1~20161122
 _ZN10Qt3DRender10QPointSizeD1Ev@Qt_5 5.7.1~20161122
 _ZN10Qt3DRender10QPointSizeD2Ev@Qt_5 5.7.1~20161122
 _ZN10Qt3DRender10QRayCaster11qt_metacallEN11QMetaObject4CallEiPPv@Qt_5 5.11.1
 _ZN10Qt3DRender10QRayCaster11qt_metacastEPKc@Qt_5 5.11.1
 _ZN10Qt3DRender10QRayCaster12setDirectionERK9QVector3D@Qt_5 5.11.1
 _ZN10Qt3DRender10QRayCaster13lengthChangedEf@Qt_5 5.11.1
 _ZN10Qt3DRender10QRayCaster13originChangedERK9QVector3D@Qt_5 5.11.1
 _ZN10Qt3DRender10QRayCaster16directionChangedERK9QVector3D@Qt_5 5.11.1
 _ZN10Qt3DRender10QRayCaster16staticMetaObjectE@Qt_5 5.11.1
 _ZN10Qt3DRender10QRayCaster7triggerERK9QVector3DS3_f@Qt_5 5.11.1
 _ZN10Qt3DRender10QRayCaster7triggerEv@Qt_5 5.11.1
 _ZN10Qt3DRender10QRayCaster9setLengthEf@Qt_5 5.11.1
 _ZN10Qt3DRender10QRayCaster9setOriginERK9QVector3D@Qt_5 5.11.1
 _ZN10Qt3DRender10QRayCasterC1EPN8Qt3DCore5QNodeE@Qt_5 5.11.1
 _ZN10Qt3DRender10QRayCasterC2EPN8Qt3DCore5QNodeE@Qt_5 5.11.1
 _ZN10Qt3DRender10QRayCasterD0Ev@Qt_5 5.11.1
 _ZN10Qt3DRender10QRayCasterD1Ev@Qt_5 5.11.1
 _ZN10Qt3DRender10QRayCasterD2Ev@Qt_5 5.11.1
 _ZN10Qt3DRender10QSpotLight11qt_metacallEN11QMetaObject4CallEiPPv@Qt_5 5.7.1~20161122
 _ZN10Qt3DRender10QSpotLight11qt_metacastEPKc@Qt_5 5.7.1~20161122
 _ZN10Qt3DRender10QSpotLight14setCutOffAngleEf@Qt_5 5.7.1~20161122
 _ZN10Qt3DRender10QSpotLight16staticMetaObjectE@Qt_5 5.7.1~20161122
 _ZN10Qt3DRender10QSpotLight17setLocalDirectionERK9QVector3D@Qt_5 5.7.1~20161122
 _ZN10Qt3DRender10QSpotLight18cutOffAngleChangedEf@Qt_5 5.7.1~20161122
 _ZN10Qt3DRender10QSpotLight20setLinearAttenuationEf@Qt_5 5.7.1~20161122
 _ZN10Qt3DRender10QSpotLight21localDirectionChangedERK9QVector3D@Qt_5 5.7.1~20161122
 _ZN10Qt3DRender10QSpotLight22setConstantAttenuationEf@Qt_5 5.7.1~20161122
 _ZN10Qt3DRender10QSpotLight23setQuadraticAttenuationEf@Qt_5 5.7.1~20161122
 _ZN10Qt3DRender10QSpotLight24linearAttenuationChangedEf@Qt_5 5.7.1~20161122
 _ZN10Qt3DRender10QSpotLight26constantAttenuationChangedEf@Qt_5 5.7.1~20161122
 _ZN10Qt3DRender10QSpotLight27quadraticAttenuationChangedEf@Qt_5 5.7.1~20161122
 _ZN10Qt3DRender10QSpotLightC1EPN8Qt3DCore5QNodeE@Qt_5 5.7.1~20161122
 _ZN10Qt3DRender10QSpotLightC2EPN8Qt3DCore5QNodeE@Qt_5 5.7.1~20161122
 _ZN10Qt3DRender10QSpotLightD0Ev@Qt_5 5.7.1~20161122
 _ZN10Qt3DRender10QSpotLightD1Ev@Qt_5 5.7.1~20161122
 _ZN10Qt3DRender10QSpotLightD2Ev@Qt_5 5.7.1~20161122
 _ZN10Qt3DRender10QTechnique11qt_metacallEN11QMetaObject4CallEiPPv@Qt_5 5.7.1~20161122
 _ZN10Qt3DRender10QTechnique11qt_metacastEPKc@Qt_5 5.7.1~20161122
 _ZN10Qt3DRender10QTechnique12addFilterKeyEPNS_10QFilterKeyE@Qt_5 5.7.1~20161122
 _ZN10Qt3DRender10QTechnique12addParameterEPNS_10QParameterE@Qt_5 5.7.1~20161122
 _ZN10Qt3DRender10QTechnique13addRenderPassEPNS_11QRenderPassE@Qt_5 5.7.1~20161122
 _ZN10Qt3DRender10QTechnique15removeFilterKeyEPNS_10QFilterKeyE@Qt_5 5.7.1~20161122
 _ZN10Qt3DRender10QTechnique15removeParameterEPNS_10QParameterE@Qt_5 5.7.1~20161122
 _ZN10Qt3DRender10QTechnique16removeRenderPassEPNS_11QRenderPassE@Qt_5 5.7.1~20161122
 _ZN10Qt3DRender10QTechnique16staticMetaObjectE@Qt_5 5.7.1~20161122
 _ZN10Qt3DRender10QTechnique17graphicsApiFilterEv@Qt_5 5.7.1~20161122
 _ZN10Qt3DRender10QTechniqueC1EPN8Qt3DCore5QNodeE@Qt_5 5.7.1~20161122
 _ZN10Qt3DRender10QTechniqueC1ERNS_17QTechniquePrivateEPN8Qt3DCore5QNodeE@Qt_5 5.7.1~20161122
 _ZN10Qt3DRender10QTechniqueC2EPN8Qt3DCore5QNodeE@Qt_5 5.7.1~20161122
 _ZN10Qt3DRender10QTechniqueC2ERNS_17QTechniquePrivateEPN8Qt3DCore5QNodeE@Qt_5 5.7.1~20161122
 _ZN10Qt3DRender10QTechniqueD0Ev@Qt_5 5.7.1~20161122
 _ZN10Qt3DRender10QTechniqueD1Ev@Qt_5 5.7.1~20161122
 _ZN10Qt3DRender10QTechniqueD2Ev@Qt_5 5.7.1~20161122
 _ZN10Qt3DRender10QTexture1D11qt_metacallEN11QMetaObject4CallEiPPv@Qt_5 5.7.1~20161122
 _ZN10Qt3DRender10QTexture1D11qt_metacastEPKc@Qt_5 5.7.1~20161122
 _ZN10Qt3DRender10QTexture1D16staticMetaObjectE@Qt_5 5.7.1~20161122
 _ZN10Qt3DRender10QTexture1DC1EPN8Qt3DCore5QNodeE@Qt_5 5.7.1~20161122
 _ZN10Qt3DRender10QTexture1DC2EPN8Qt3DCore5QNodeE@Qt_5 5.7.1~20161122
 _ZN10Qt3DRender10QTexture1DD0Ev@Qt_5 5.7.1~20161122
 _ZN10Qt3DRender10QTexture1DD1Ev@Qt_5 5.7.1~20161122
 _ZN10Qt3DRender10QTexture1DD2Ev@Qt_5 5.7.1~20161122
 _ZN10Qt3DRender10QTexture2D11qt_metacallEN11QMetaObject4CallEiPPv@Qt_5 5.7.1~20161122
 _ZN10Qt3DRender10QTexture2D11qt_metacastEPKc@Qt_5 5.7.1~20161122
 _ZN10Qt3DRender10QTexture2D16staticMetaObjectE@Qt_5 5.7.1~20161122
 _ZN10Qt3DRender10QTexture2DC1EPN8Qt3DCore5QNodeE@Qt_5 5.7.1~20161122
 _ZN10Qt3DRender10QTexture2DC2EPN8Qt3DCore5QNodeE@Qt_5 5.7.1~20161122
 _ZN10Qt3DRender10QTexture2DD0Ev@Qt_5 5.7.1~20161122
 _ZN10Qt3DRender10QTexture2DD1Ev@Qt_5 5.7.1~20161122
 _ZN10Qt3DRender10QTexture2DD2Ev@Qt_5 5.7.1~20161122
 _ZN10Qt3DRender10QTexture3D11qt_metacallEN11QMetaObject4CallEiPPv@Qt_5 5.7.1~20161122
 _ZN10Qt3DRender10QTexture3D11qt_metacastEPKc@Qt_5 5.7.1~20161122
 _ZN10Qt3DRender10QTexture3D16staticMetaObjectE@Qt_5 5.7.1~20161122
 _ZN10Qt3DRender10QTexture3DC1EPN8Qt3DCore5QNodeE@Qt_5 5.7.1~20161122
 _ZN10Qt3DRender10QTexture3DC2EPN8Qt3DCore5QNodeE@Qt_5 5.7.1~20161122
 _ZN10Qt3DRender10QTexture3DD0Ev@Qt_5 5.7.1~20161122
 _ZN10Qt3DRender10QTexture3DD1Ev@Qt_5 5.7.1~20161122
 _ZN10Qt3DRender10QTexture3DD2Ev@Qt_5 5.7.1~20161122
 _ZN10Qt3DRender10QWaitFence10setTimeoutEy@Qt_5 5.14.2
 _ZN10Qt3DRender10QWaitFence11qt_metacallEN11QMetaObject4CallEiPPv@Qt_5 5.14.2
 _ZN10Qt3DRender10QWaitFence11qt_metacastEPKc@Qt_5 5.14.2
 _ZN10Qt3DRender10QWaitFence12setWaitOnCPUEb@Qt_5 5.14.2
 _ZN10Qt3DRender10QWaitFence13handleChangedE8QVariant@Qt_5 5.14.2
 _ZN10Qt3DRender10QWaitFence13setHandleTypeENS0_10HandleTypeE@Qt_5 5.14.2
 _ZN10Qt3DRender10QWaitFence14timeoutChangedEy@Qt_5 5.14.2
 _ZN10Qt3DRender10QWaitFence16staticMetaObjectE@Qt_5 5.14.2
 _ZN10Qt3DRender10QWaitFence16waitOnCPUChangedEb@Qt_5 5.14.2
 _ZN10Qt3DRender10QWaitFence17handleTypeChangedENS0_10HandleTypeE@Qt_5 5.14.2
 _ZN10Qt3DRender10QWaitFence9setHandleE8QVariant@Qt_5 5.14.2
 _ZN10Qt3DRender10QWaitFenceC1EPN8Qt3DCore5QNodeE@Qt_5 5.14.2
 _ZN10Qt3DRender10QWaitFenceC1ERNS_17QWaitFencePrivateEPN8Qt3DCore5QNodeE@Qt_5 5.14.2
 _ZN10Qt3DRender10QWaitFenceC2EPN8Qt3DCore5QNodeE@Qt_5 5.14.2
 _ZN10Qt3DRender10QWaitFenceC2ERNS_17QWaitFencePrivateEPN8Qt3DCore5QNodeE@Qt_5 5.14.2
 _ZN10Qt3DRender10QWaitFenceD0Ev@Qt_5 5.14.2
 _ZN10Qt3DRender10QWaitFenceD1Ev@Qt_5 5.14.2
 _ZN10Qt3DRender10QWaitFenceD2Ev@Qt_5 5.14.2
 _ZN10Qt3DRender11QCameraLens10topChangedEf@Qt_5 5.7.1~20161122
 _ZN10Qt3DRender11QCameraLens10viewEntityEN8Qt3DCore7QNodeIdES2_@Qt_5 5.10.1
 _ZN10Qt3DRender11QCameraLens10viewSphereERK9QVector3Df@Qt_5 5.10.1
 _ZN10Qt3DRender11QCameraLens11leftChangedEf@Qt_5 5.7.1~20161122
 _ZN10Qt3DRender11QCameraLens11qt_metacallEN11QMetaObject4CallEiPPv@Qt_5 5.7.1~20161122
 _ZN10Qt3DRender11QCameraLens11qt_metacastEPKc@Qt_5 5.7.1~20161122
 _ZN10Qt3DRender11QCameraLens11setExposureEf@Qt_5 5.9.0
 _ZN10Qt3DRender11QCameraLens11setFarPlaneEf@Qt_5 5.7.1~20161122
 _ZN10Qt3DRender11QCameraLens12rightChangedEf@Qt_5 5.7.1~20161122
 _ZN10Qt3DRender11QCameraLens12setNearPlaneEf@Qt_5 5.7.1~20161122
 _ZN10Qt3DRender11QCameraLens13bottomChangedEf@Qt_5 5.7.1~20161122
 _ZN10Qt3DRender11QCameraLens14setAspectRatioEf@Qt_5 5.7.1~20161122
 _ZN10Qt3DRender11QCameraLens14setFieldOfViewEf@Qt_5 5.7.1~20161122
 _ZN10Qt3DRender11QCameraLens15exposureChangedEf@Qt_5 5.9.0
 _ZN10Qt3DRender11QCameraLens15farPlaneChangedEf@Qt_5 5.7.1~20161122
 _ZN10Qt3DRender11QCameraLens16nearPlaneChangedEf@Qt_5 5.7.1~20161122
 _ZN10Qt3DRender11QCameraLens16sceneChangeEventERK14QSharedPointerIN8Qt3DCore12QSceneChangeEE@Qt_5 5.10.1
 _ZN10Qt3DRender11QCameraLens16staticMetaObjectE@Qt_5 5.7.1~20161122
 _ZN10Qt3DRender11QCameraLens17setProjectionTypeENS0_14ProjectionTypeE@Qt_5 5.7.1~20161122
 _ZN10Qt3DRender11QCameraLens18aspectRatioChangedEf@Qt_5 5.7.1~20161122
 _ZN10Qt3DRender11QCameraLens18fieldOfViewChangedEf@Qt_5 5.7.1~20161122
 _ZN10Qt3DRender11QCameraLens19setProjectionMatrixERK10QMatrix4x4@Qt_5 5.7.1~20161122
 _ZN10Qt3DRender11QCameraLens20setFrustumProjectionEffffff@Qt_5 5.7.1~20161122
 _ZN10Qt3DRender11QCameraLens21projectionTypeChangedENS0_14ProjectionTypeE@Qt_5 5.7.1~20161122
 _ZN10Qt3DRender11QCameraLens23projectionMatrixChangedERK10QMatrix4x4@Qt_5 5.7.1~20161122
 _ZN10Qt3DRender11QCameraLens24setPerspectiveProjectionEffff@Qt_5 5.7.1~20161122
 _ZN10Qt3DRender11QCameraLens25setOrthographicProjectionEffffff@Qt_5 5.7.1~20161122
 _ZN10Qt3DRender11QCameraLens6setTopEf@Qt_5 5.7.1~20161122
 _ZN10Qt3DRender11QCameraLens7setLeftEf@Qt_5 5.7.1~20161122
 _ZN10Qt3DRender11QCameraLens7viewAllEN8Qt3DCore7QNodeIdE@Qt_5 5.10.1
 _ZN10Qt3DRender11QCameraLens8setRightEf@Qt_5 5.7.1~20161122
 _ZN10Qt3DRender11QCameraLens9setBottomEf@Qt_5 5.7.1~20161122
 _ZN10Qt3DRender11QCameraLensC1EPN8Qt3DCore5QNodeE@Qt_5 5.7.1~20161122
 _ZN10Qt3DRender11QCameraLensC2EPN8Qt3DCore5QNodeE@Qt_5 5.7.1~20161122
 _ZN10Qt3DRender11QCameraLensD0Ev@Qt_5 5.7.1~20161122
 _ZN10Qt3DRender11QCameraLensD1Ev@Qt_5 5.7.1~20161122
 _ZN10Qt3DRender11QCameraLensD2Ev@Qt_5 5.7.1~20161122
 _ZN10Qt3DRender11QDepthRange11qt_metacallEN11QMetaObject4CallEiPPv@Qt_5 5.14.2
 _ZN10Qt3DRender11QDepthRange11qt_metacastEPKc@Qt_5 5.14.2
 _ZN10Qt3DRender11QDepthRange11setFarValueEd@Qt_5 5.14.2
 _ZN10Qt3DRender11QDepthRange12setNearValueEd@Qt_5 5.14.2
 _ZN10Qt3DRender11QDepthRange15farValueChangedEd@Qt_5 5.14.2
 _ZN10Qt3DRender11QDepthRange16nearValueChangedEd@Qt_5 5.14.2
 _ZN10Qt3DRender11QDepthRange16staticMetaObjectE@Qt_5 5.14.2
 _ZN10Qt3DRender11QDepthRangeC1EPN8Qt3DCore5QNodeE@Qt_5 5.14.2
 _ZN10Qt3DRender11QDepthRangeC2EPN8Qt3DCore5QNodeE@Qt_5 5.14.2
 _ZN10Qt3DRender11QDepthRangeD0Ev@Qt_5 5.14.2
 _ZN10Qt3DRender11QDepthRangeD1Ev@Qt_5 5.14.2
 _ZN10Qt3DRender11QDepthRangeD2Ev@Qt_5 5.14.2
 _ZN10Qt3DRender11QPointLight11qt_metacallEN11QMetaObject4CallEiPPv@Qt_5 5.7.1~20161122
 _ZN10Qt3DRender11QPointLight11qt_metacastEPKc@Qt_5 5.7.1~20161122
 _ZN10Qt3DRender11QPointLight16staticMetaObjectE@Qt_5 5.7.1~20161122
 _ZN10Qt3DRender11QPointLight20setLinearAttenuationEf@Qt_5 5.7.1~20161122
 _ZN10Qt3DRender11QPointLight22setConstantAttenuationEf@Qt_5 5.7.1~20161122
 _ZN10Qt3DRender11QPointLight23setQuadraticAttenuationEf@Qt_5 5.7.1~20161122
 _ZN10Qt3DRender11QPointLight24linearAttenuationChangedEf@Qt_5 5.7.1~20161122
 _ZN10Qt3DRender11QPointLight26constantAttenuationChangedEf@Qt_5 5.7.1~20161122
 _ZN10Qt3DRender11QPointLight27quadraticAttenuationChangedEf@Qt_5 5.7.1~20161122
 _ZN10Qt3DRender11QPointLightC1EPN8Qt3DCore5QNodeE@Qt_5 5.7.1~20161122
 _ZN10Qt3DRender11QPointLightC2EPN8Qt3DCore5QNodeE@Qt_5 5.7.1~20161122
 _ZN10Qt3DRender11QPointLightD0Ev@Qt_5 5.7.1~20161122
 _ZN10Qt3DRender11QPointLightD1Ev@Qt_5 5.7.1~20161122
 _ZN10Qt3DRender11QPointLightD2Ev@Qt_5 5.7.1~20161122
 _ZN10Qt3DRender11QRasterMode11qt_metacallEN11QMetaObject4CallEiPPv@Qt_5 5.14.2
 _ZN10Qt3DRender11QRasterMode11qt_metacastEPKc@Qt_5 5.14.2
 _ZN10Qt3DRender11QRasterMode11setFaceModeENS0_8FaceModeE@Qt_5 5.14.2
 _ZN10Qt3DRender11QRasterMode15faceModeChangedENS0_8FaceModeE@Qt_5 5.14.2
 _ZN10Qt3DRender11QRasterMode16staticMetaObjectE@Qt_5 5.14.2
 _ZN10Qt3DRender11QRasterModeC1EPN8Qt3DCore5QNodeE@Qt_5 5.14.2
 _ZN10Qt3DRender11QRasterModeC2EPN8Qt3DCore5QNodeE@Qt_5 5.14.2
 _ZN10Qt3DRender11QRasterModeD0Ev@Qt_5 5.14.2
 _ZN10Qt3DRender11QRasterModeD1Ev@Qt_5 5.14.2
 _ZN10Qt3DRender11QRasterModeD2Ev@Qt_5 5.14.2
 _ZN10Qt3DRender11QRenderPass11qt_metacallEN11QMetaObject4CallEiPPv@Qt_5 5.7.1~20161122
 _ZN10Qt3DRender11QRenderPass11qt_metacastEPKc@Qt_5 5.7.1~20161122
 _ZN10Qt3DRender11QRenderPass12addFilterKeyEPNS_10QFilterKeyE@Qt_5 5.7.1~20161122
 _ZN10Qt3DRender11QRenderPass12addParameterEPNS_10QParameterE@Qt_5 5.7.1~20161122
 _ZN10Qt3DRender11QRenderPass14addRenderStateEPNS_12QRenderStateE@Qt_5 5.7.1~20161122
 _ZN10Qt3DRender11QRenderPass15removeFilterKeyEPNS_10QFilterKeyE@Qt_5 5.7.1~20161122
 _ZN10Qt3DRender11QRenderPass15removeParameterEPNS_10QParameterE@Qt_5 5.7.1~20161122
 _ZN10Qt3DRender11QRenderPass16setShaderProgramEPNS_14QShaderProgramE@Qt_5 5.7.1~20161122
 _ZN10Qt3DRender11QRenderPass16staticMetaObjectE@Qt_5 5.7.1~20161122
 _ZN10Qt3DRender11QRenderPass17removeRenderStateEPNS_12QRenderStateE@Qt_5 5.7.1~20161122
 _ZN10Qt3DRender11QRenderPass20shaderProgramChangedEPNS_14QShaderProgramE@Qt_5 5.7.1~20161122
 _ZN10Qt3DRender11QRenderPassC1EPN8Qt3DCore5QNodeE@Qt_5 5.7.1~20161122
 _ZN10Qt3DRender11QRenderPassC1ERNS_18QRenderPassPrivateEPN8Qt3DCore5QNodeE@Qt_5 5.7.1~20161122
 _ZN10Qt3DRender11QRenderPassC2EPN8Qt3DCore5QNodeE@Qt_5 5.7.1~20161122
 _ZN10Qt3DRender11QRenderPassC2ERNS_18QRenderPassPrivateEPN8Qt3DCore5QNodeE@Qt_5 5.7.1~20161122
 _ZN10Qt3DRender11QRenderPassD0Ev@Qt_5 5.7.1~20161122
 _ZN10Qt3DRender11QRenderPassD1Ev@Qt_5 5.7.1~20161122
 _ZN10Qt3DRender11QRenderPassD2Ev@Qt_5 5.7.1~20161122
 _ZN10Qt3DRender11QShaderData11qt_metacallEN11QMetaObject4CallEiPPv@Qt_5 5.7.1~20161122
 _ZN10Qt3DRender11QShaderData11qt_metacastEPKc@Qt_5 5.7.1~20161122
 _ZN10Qt3DRender11QShaderData16staticMetaObjectE@Qt_5 5.7.1~20161122
 _ZN10Qt3DRender11QShaderData5eventEP6QEvent@Qt_5 5.7.1~20161122
 _ZN10Qt3DRender11QShaderDataC1EPN8Qt3DCore5QNodeE@Qt_5 5.7.1~20161122
 _ZN10Qt3DRender11QShaderDataC2EPN8Qt3DCore5QNodeE@Qt_5 5.7.1~20161122
 _ZN10Qt3DRender11QShaderDataD0Ev@Qt_5 5.7.1~20161122
 _ZN10Qt3DRender11QShaderDataD1Ev@Qt_5 5.7.1~20161122
 _ZN10Qt3DRender11QShaderDataD2Ev@Qt_5 5.7.1~20161122
 _ZN10Qt3DRender11QShaderNode10removePortERKNS_15QShaderNodePortE@Qt_5 5.15.1
 _ZN10Qt3DRender11QShaderNode10removeRuleERKNS_13QShaderFormatE@Qt_5 5.15.1
 _ZN10Qt3DRender11QShaderNode12setParameterERK7QStringRK8QVariant@Qt_5 5.15.1
 _ZN10Qt3DRender11QShaderNode14clearParameterERK7QString@Qt_5 5.15.1
 _ZN10Qt3DRender11QShaderNode4RuleC1ERK10QByteArrayRK5QListIS2_E@Qt_5 5.15.1
 _ZN10Qt3DRender11QShaderNode4RuleC2ERK10QByteArrayRK5QListIS2_E@Qt_5 5.15.1
 _ZN10Qt3DRender11QShaderNode7addPortERKNS_15QShaderNodePortE@Qt_5 5.15.1
 _ZN10Qt3DRender11QShaderNode7addRuleERKNS_13QShaderFormatERKNS0_4RuleE@Qt_5 5.15.1
 _ZN10Qt3DRender11QShaderNode7setUuidERK5QUuid@Qt_5 5.15.1
 _ZN10Qt3DRender11QShaderNode9setLayersERK11QStringList@Qt_5 5.15.1
 _ZN10Qt3DRender11QSortPolicy11qt_metacallEN11QMetaObject4CallEiPPv@Qt_5 5.7.1~20161122
 _ZN10Qt3DRender11QSortPolicy11qt_metacastEPKc@Qt_5 5.7.1~20161122
 _ZN10Qt3DRender11QSortPolicy12setSortTypesERK7QVectorINS0_8SortTypeEE@Qt_5 5.7.1~20161122
 _ZN10Qt3DRender11QSortPolicy12setSortTypesERK7QVectorIiE@Qt_5 5.7.1~20161122
 _ZN10Qt3DRender11QSortPolicy16sortTypesChangedERK7QVectorINS0_8SortTypeEE@Qt_5 5.7.1~20161122
 _ZN10Qt3DRender11QSortPolicy16sortTypesChangedERK7QVectorIiE@Qt_5 5.7.1~20161122
 _ZN10Qt3DRender11QSortPolicy16staticMetaObjectE@Qt_5 5.7.1~20161122
 _ZN10Qt3DRender11QSortPolicyC1EPN8Qt3DCore5QNodeE@Qt_5 5.7.1~20161122
 _ZN10Qt3DRender11QSortPolicyC1ERNS_18QSortPolicyPrivateEPN8Qt3DCore5QNodeE@Qt_5 5.7.1~20161122
 _ZN10Qt3DRender11QSortPolicyC2EPN8Qt3DCore5QNodeE@Qt_5 5.7.1~20161122
 _ZN10Qt3DRender11QSortPolicyC2ERNS_18QSortPolicyPrivateEPN8Qt3DCore5QNodeE@Qt_5 5.7.1~20161122
 _ZN10Qt3DRender11QSortPolicyD0Ev@Qt_5 5.7.1~20161122
 _ZN10Qt3DRender11QSortPolicyD1Ev@Qt_5 5.7.1~20161122
 _ZN10Qt3DRender11QSortPolicyD2Ev@Qt_5 5.7.1~20161122
 _ZN10Qt3DRender12QLayerFilter11qt_metacallEN11QMetaObject4CallEiPPv@Qt_5 5.7.1~20161122
 _ZN10Qt3DRender12QLayerFilter11qt_metacastEPKc@Qt_5 5.7.1~20161122
 _ZN10Qt3DRender12QLayerFilter11removeLayerEPNS_6QLayerE@Qt_5 5.7.1~20161122
 _ZN10Qt3DRender12QLayerFilter13setFilterModeENS0_10FilterModeE@Qt_5 5.10.1
 _ZN10Qt3DRender12QLayerFilter16staticMetaObjectE@Qt_5 5.7.1~20161122
 _ZN10Qt3DRender12QLayerFilter17filterModeChangedENS0_10FilterModeE@Qt_5 5.10.1
 _ZN10Qt3DRender12QLayerFilter8addLayerEPNS_6QLayerE@Qt_5 5.7.1~20161122
 _ZN10Qt3DRender12QLayerFilterC1EPN8Qt3DCore5QNodeE@Qt_5 5.7.1~20161122
 _ZN10Qt3DRender12QLayerFilterC1ERNS_19QLayerFilterPrivateEPN8Qt3DCore5QNodeE@Qt_5 5.7.1~20161122
 _ZN10Qt3DRender12QLayerFilterC2EPN8Qt3DCore5QNodeE@Qt_5 5.7.1~20161122
 _ZN10Qt3DRender12QLayerFilterC2ERNS_19QLayerFilterPrivateEPN8Qt3DCore5QNodeE@Qt_5 5.7.1~20161122
 _ZN10Qt3DRender12QLayerFilterD0Ev@Qt_5 5.7.1~20161122
 _ZN10Qt3DRender12QLayerFilterD1Ev@Qt_5 5.7.1~20161122
 _ZN10Qt3DRender12QLayerFilterD2Ev@Qt_5 5.7.1~20161122
 _ZN10Qt3DRender12QNoDepthMask11qt_metacallEN11QMetaObject4CallEiPPv@Qt_5 5.7.1~20161122
 _ZN10Qt3DRender12QNoDepthMask11qt_metacastEPKc@Qt_5 5.7.1~20161122
 _ZN10Qt3DRender12QNoDepthMask16staticMetaObjectE@Qt_5 5.7.1~20161122
 _ZN10Qt3DRender12QNoDepthMaskC1EPN8Qt3DCore5QNodeE@Qt_5 5.7.1~20161122
 _ZN10Qt3DRender12QNoDepthMaskC2EPN8Qt3DCore5QNodeE@Qt_5 5.7.1~20161122
 _ZN10Qt3DRender12QNoDepthMaskD0Ev@Qt_5 5.7.1~20161122
 _ZN10Qt3DRender12QNoDepthMaskD1Ev@Qt_5 5.7.1~20161122
 _ZN10Qt3DRender12QNoDepthMaskD2Ev@Qt_5 5.7.1~20161122
 _ZN10Qt3DRender12QRenderState11qt_metacallEN11QMetaObject4CallEiPPv@Qt_5 5.7.1~20161122
 _ZN10Qt3DRender12QRenderState11qt_metacastEPKc@Qt_5 5.7.1~20161122
 _ZN10Qt3DRender12QRenderState16staticMetaObjectE@Qt_5 5.7.1~20161122
 _ZN10Qt3DRender12QRenderStateD0Ev@Qt_5 5.7.1~20161122
 _ZN10Qt3DRender12QRenderStateD1Ev@Qt_5 5.7.1~20161122
 _ZN10Qt3DRender12QRenderStateD2Ev@Qt_5 5.7.1~20161122
 _ZN10Qt3DRender12QSceneLoader11qt_metacallEN11QMetaObject4CallEiPPv@Qt_5 5.7.1~20161122
 _ZN10Qt3DRender12QSceneLoader11qt_metacastEPKc@Qt_5 5.7.1~20161122
 _ZN10Qt3DRender12QSceneLoader13sourceChangedERK4QUrl@Qt_5 5.7.1~20161122
 _ZN10Qt3DRender12QSceneLoader13statusChangedENS0_6StatusE@Qt_5 5.7.1~20161122
 _ZN10Qt3DRender12QSceneLoader16sceneChangeEventERK14QSharedPointerIN8Qt3DCore12QSceneChangeEE@Qt_5 5.7.1~20161122
 _ZN10Qt3DRender12QSceneLoader16staticMetaObjectE@Qt_5 5.7.1~20161122
 _ZN10Qt3DRender12QSceneLoader9setSourceERK4QUrl@Qt_5 5.7.1~20161122
 _ZN10Qt3DRender12QSceneLoader9setStatusENS0_6StatusE@Qt_5 5.7.1~20161122
 _ZN10Qt3DRender12QSceneLoaderC1EPN8Qt3DCore5QNodeE@Qt_5 5.7.1~20161122
 _ZN10Qt3DRender12QSceneLoaderC2EPN8Qt3DCore5QNodeE@Qt_5 5.7.1~20161122
 _ZN10Qt3DRender12QSceneLoaderD0Ev@Qt_5 5.7.1~20161122
 _ZN10Qt3DRender12QSceneLoaderD1Ev@Qt_5 5.7.1~20161122
 _ZN10Qt3DRender12QSceneLoaderD2Ev@Qt_5 5.7.1~20161122
 _ZN10Qt3DRender12QScissorTest11leftChangedEi@Qt_5 5.7.1~20161122
 _ZN10Qt3DRender12QScissorTest11qt_metacallEN11QMetaObject4CallEiPPv@Qt_5 5.7.1~20161122
 _ZN10Qt3DRender12QScissorTest11qt_metacastEPKc@Qt_5 5.7.1~20161122
 _ZN10Qt3DRender12QScissorTest12widthChangedEi@Qt_5 5.7.1~20161122
 _ZN10Qt3DRender12QScissorTest13bottomChangedEi@Qt_5 5.7.1~20161122
 _ZN10Qt3DRender12QScissorTest13heightChangedEi@Qt_5 5.7.1~20161122
 _ZN10Qt3DRender12QScissorTest16staticMetaObjectE@Qt_5 5.7.1~20161122
 _ZN10Qt3DRender12QScissorTest7setLeftEi@Qt_5 5.7.1~20161122
 _ZN10Qt3DRender12QScissorTest8setWidthEi@Qt_5 5.7.1~20161122
 _ZN10Qt3DRender12QScissorTest9setBottomEi@Qt_5 5.7.1~20161122
 _ZN10Qt3DRender12QScissorTest9setHeightEi@Qt_5 5.7.1~20161122
 _ZN10Qt3DRender12QScissorTestC1EPN8Qt3DCore5QNodeE@Qt_5 5.7.1~20161122
 _ZN10Qt3DRender12QScissorTestC2EPN8Qt3DCore5QNodeE@Qt_5 5.7.1~20161122
 _ZN10Qt3DRender12QScissorTestD0Ev@Qt_5 5.7.1~20161122
 _ZN10Qt3DRender12QScissorTestD1Ev@Qt_5 5.7.1~20161122
 _ZN10Qt3DRender12QScissorTestD2Ev@Qt_5 5.7.1~20161122
 _ZN10Qt3DRender12QShaderGraph10removeEdgeERKNS0_4EdgeE@Qt_5 5.15.1
 _ZN10Qt3DRender12QShaderGraph10removeNodeERKNS_11QShaderNodeE@Qt_5 5.15.1
 _ZN10Qt3DRender12QShaderGraph7addEdgeERKNS0_4EdgeE@Qt_5 5.15.1
 _ZN10Qt3DRender12QShaderGraph7addNodeERKNS_11QShaderNodeE@Qt_5 5.15.1
 _ZN10Qt3DRender12QShaderImage10setLayeredEb@Qt_5 5.14.2
 _ZN10Qt3DRender12QShaderImage10setTextureEPNS_16QAbstractTextureE@Qt_5 5.14.2
 _ZN10Qt3DRender12QShaderImage11qt_metacallEN11QMetaObject4CallEiPPv@Qt_5 5.14.2
 _ZN10Qt3DRender12QShaderImage11qt_metacastEPKc@Qt_5 5.14.2
 _ZN10Qt3DRender12QShaderImage11setMipLevelEi@Qt_5 5.14.2
 _ZN10Qt3DRender12QShaderImage12layerChangedEi@Qt_5 5.14.2
 _ZN10Qt3DRender12QShaderImage13accessChangedENS0_6AccessE@Qt_5 5.14.2
 _ZN10Qt3DRender12QShaderImage13formatChangedENS0_11ImageFormatE@Qt_5 5.14.2
 _ZN10Qt3DRender12QShaderImage14layeredChangedEb@Qt_5 5.14.2
 _ZN10Qt3DRender12QShaderImage14textureChangedEPNS_16QAbstractTextureE@Qt_5 5.14.2
 _ZN10Qt3DRender12QShaderImage15mipLevelChangedEi@Qt_5 5.14.2
 _ZN10Qt3DRender12QShaderImage16staticMetaObjectE@Qt_5 5.14.2
 _ZN10Qt3DRender12QShaderImage8setLayerEi@Qt_5 5.14.2
 _ZN10Qt3DRender12QShaderImage9setAccessENS0_6AccessE@Qt_5 5.14.2
 _ZN10Qt3DRender12QShaderImage9setFormatENS0_11ImageFormatE@Qt_5 5.14.2
 _ZN10Qt3DRender12QShaderImageC1EPN8Qt3DCore5QNodeE@Qt_5 5.14.2
 _ZN10Qt3DRender12QShaderImageC2EPN8Qt3DCore5QNodeE@Qt_5 5.14.2
 _ZN10Qt3DRender12QShaderImageD0Ev@Qt_5 5.14.2
 _ZN10Qt3DRender12QShaderImageD1Ev@Qt_5 5.14.2
 _ZN10Qt3DRender12QShaderImageD2Ev@Qt_5 5.14.2
 _ZN10Qt3DRender12QStencilMask11qt_metacallEN11QMetaObject4CallEiPPv@Qt_5 5.7.1~20161122
 _ZN10Qt3DRender12QStencilMask11qt_metacastEPKc@Qt_5 5.7.1~20161122
 _ZN10Qt3DRender12QStencilMask16staticMetaObjectE@Qt_5 5.7.1~20161122
 _ZN10Qt3DRender12QStencilMask17setBackOutputMaskEj@Qt_5 5.7.1~20161122
 _ZN10Qt3DRender12QStencilMask18setFrontOutputMaskEj@Qt_5 5.7.1~20161122
 _ZN10Qt3DRender12QStencilMask21backOutputMaskChangedEj@Qt_5 5.7.1~20161122
 _ZN10Qt3DRender12QStencilMask22frontOutputMaskChangedEj@Qt_5 5.7.1~20161122
 _ZN10Qt3DRender12QStencilMaskC1EPN8Qt3DCore5QNodeE@Qt_5 5.7.1~20161122
 _ZN10Qt3DRender12QStencilMaskC2EPN8Qt3DCore5QNodeE@Qt_5 5.7.1~20161122
 _ZN10Qt3DRender12QStencilMaskD0Ev@Qt_5 5.7.1~20161122
 _ZN10Qt3DRender12QStencilMaskD1Ev@Qt_5 5.7.1~20161122
 _ZN10Qt3DRender12QStencilMaskD2Ev@Qt_5 5.7.1~20161122
 _ZN10Qt3DRender12QStencilTest11qt_metacallEN11QMetaObject4CallEiPPv@Qt_5 5.7.1~20161122
 _ZN10Qt3DRender12QStencilTest11qt_metacastEPKc@Qt_5 5.7.1~20161122
 _ZN10Qt3DRender12QStencilTest16staticMetaObjectE@Qt_5 5.7.1~20161122
 _ZN10Qt3DRender12QStencilTestC1EPN8Qt3DCore5QNodeE@Qt_5 5.7.1~20161122
 _ZN10Qt3DRender12QStencilTestC2EPN8Qt3DCore5QNodeE@Qt_5 5.7.1~20161122
 _ZN10Qt3DRender12QStencilTestD0Ev@Qt_5 5.7.1~20161122
 _ZN10Qt3DRender12QStencilTestD1Ev@Qt_5 5.7.1~20161122
 _ZN10Qt3DRender12QStencilTestD2Ev@Qt_5 5.7.1~20161122
 _ZN10Qt3DRender12QTextureData12addImageDataERK14QSharedPointerINS_17QTextureImageDataEE@Qt_5 5.7.1~20161122
 _ZN10Qt3DRender12QTextureData12setWrapModeXENS_16QTextureWrapMode8WrapModeE@Qt_5 5.7.1~20161122
 _ZN10Qt3DRender12QTextureData12setWrapModeYENS_16QTextureWrapMode8WrapModeE@Qt_5 5.7.1~20161122
 _ZN10Qt3DRender12QTextureData12setWrapModeZENS_16QTextureWrapMode8WrapModeE@Qt_5 5.7.1~20161122
 _ZN10Qt3DRender12QTextureData17setComparisonModeENS_16QAbstractTexture14ComparisonModeE@Qt_5 5.7.1~20161122
 _ZN10Qt3DRender12QTextureData20setMaximumAnisotropyEf@Qt_5 5.7.1~20161122
 _ZN10Qt3DRender12QTextureData21setComparisonFunctionENS_16QAbstractTexture18ComparisonFunctionE@Qt_5 5.7.1~20161122
 _ZN10Qt3DRender12QTextureData21setMinificationFilterENS_16QAbstractTexture6FilterE@Qt_5 5.7.1~20161122
 _ZN10Qt3DRender12QTextureData22setMagnificationFilterENS_16QAbstractTexture6FilterE@Qt_5 5.7.1~20161122
 _ZN10Qt3DRender12QTextureData30setAutoMipMapGenerationEnabledEb@Qt_5 5.7.1~20161122
 _ZN10Qt3DRender12QTextureData8setDepthEi@Qt_5 5.7.1~20161122
 _ZN10Qt3DRender12QTextureData8setWidthEi@Qt_5 5.7.1~20161122
 _ZN10Qt3DRender12QTextureData9setFormatENS_16QAbstractTexture13TextureFormatE@Qt_5 5.7.1~20161122
 _ZN10Qt3DRender12QTextureData9setHeightEi@Qt_5 5.7.1~20161122
 _ZN10Qt3DRender12QTextureData9setLayersEi@Qt_5 5.7.1~20161122
 _ZN10Qt3DRender12QTextureData9setTargetENS_16QAbstractTexture6TargetE@Qt_5 5.7.1~20161122
 _ZN10Qt3DRender12QTextureDataC1Ev@Qt_5 5.7.1~20161122
 _ZN10Qt3DRender12QTextureDataC2Ev@Qt_5 5.7.1~20161122
 _ZN10Qt3DRender12QTextureDataD1Ev@Qt_5 5.7.1~20161122
 _ZN10Qt3DRender12QTextureDataD2Ev@Qt_5 5.7.1~20161122
 _ZN10Qt3DRender13QClearBuffers10setBuffersENS0_10BufferTypeE@Qt_5 5.7.1~20161122
 _ZN10Qt3DRender13QClearBuffers11qt_metacallEN11QMetaObject4CallEiPPv@Qt_5 5.7.1~20161122
 _ZN10Qt3DRender13QClearBuffers11qt_metacastEPKc@Qt_5 5.7.1~20161122
 _ZN10Qt3DRender13QClearBuffers13setClearColorERK6QColor@Qt_5 5.7.1~20161122
 _ZN10Qt3DRender13QClearBuffers14buffersChangedENS0_10BufferTypeE@Qt_5 5.7.1~20161122
 _ZN10Qt3DRender13QClearBuffers14setColorBufferEPNS_19QRenderTargetOutputE@Qt_5 5.7.1~20161122
 _ZN10Qt3DRender13QClearBuffers16staticMetaObjectE@Qt_5 5.7.1~20161122
 _ZN10Qt3DRender13QClearBuffers17clearColorChangedERK6QColor@Qt_5 5.7.1~20161122
 _ZN10Qt3DRender13QClearBuffers18colorBufferChangedEPNS_19QRenderTargetOutputE@Qt_5 5.7.1~20161122
 _ZN10Qt3DRender13QClearBuffers18setClearDepthValueEf@Qt_5 5.7.1~20161122
 _ZN10Qt3DRender13QClearBuffers20setClearStencilValueEi@Qt_5 5.7.1~20161122
 _ZN10Qt3DRender13QClearBuffers22clearDepthValueChangedEf@Qt_5 5.7.1~20161122
 _ZN10Qt3DRender13QClearBuffers24clearStencilValueChangedEi@Qt_5 5.7.1~20161122
 _ZN10Qt3DRender13QClearBuffersC1EPN8Qt3DCore5QNodeE@Qt_5 5.7.1~20161122
 _ZN10Qt3DRender13QClearBuffersC1ERNS_20QClearBuffersPrivateEPN8Qt3DCore5QNodeE@Qt_5 5.7.1~20161122
 _ZN10Qt3DRender13QClearBuffersC2EPN8Qt3DCore5QNodeE@Qt_5 5.7.1~20161122
 _ZN10Qt3DRender13QClearBuffersC2ERNS_20QClearBuffersPrivateEPN8Qt3DCore5QNodeE@Qt_5 5.7.1~20161122
 _ZN10Qt3DRender13QClearBuffersD0Ev@Qt_5 5.7.1~20161122
 _ZN10Qt3DRender13QClearBuffersD1Ev@Qt_5 5.7.1~20161122
 _ZN10Qt3DRender13QClearBuffersD2Ev@Qt_5 5.7.1~20161122
 _ZN10Qt3DRender13QDebugOverlay11qt_metacallEN11QMetaObject4CallEiPPv@Qt_5 5.15.1
 _ZN10Qt3DRender13QDebugOverlay11qt_metacastEPKc@Qt_5 5.15.1
 _ZN10Qt3DRender13QDebugOverlay16staticMetaObjectE@Qt_5 5.15.1
 _ZN10Qt3DRender13QDebugOverlayC1EPN8Qt3DCore5QNodeE@Qt_5 5.15.1
 _ZN10Qt3DRender13QDebugOverlayC2EPN8Qt3DCore5QNodeE@Qt_5 5.15.1
 _ZN10Qt3DRender13QObjectPicker11qt_metacallEN11QMetaObject4CallEiPPv@Qt_5 5.7.1~20161122
 _ZN10Qt3DRender13QObjectPicker11qt_metacastEPKc@Qt_5 5.7.1~20161122
 _ZN10Qt3DRender13QObjectPicker11setPriorityEi@Qt_5 5.14.2
 _ZN10Qt3DRender13QObjectPicker14pressedChangedEb@Qt_5 5.7.1~20161122
 _ZN10Qt3DRender13QObjectPicker14setDragEnabledEb@Qt_5 5.7.1~20161122
 _ZN10Qt3DRender13QObjectPicker15priorityChangedEi@Qt_5 5.14.2
 _ZN10Qt3DRender13QObjectPicker15setHoverEnabledEb@Qt_5 5.7.1~20161122
 _ZN10Qt3DRender13QObjectPicker16sceneChangeEventERK14QSharedPointerIN8Qt3DCore12QSceneChangeEE@Qt_5 5.7.1~20161122
 _ZN10Qt3DRender13QObjectPicker16staticMetaObjectE@Qt_5 5.7.1~20161122
 _ZN10Qt3DRender13QObjectPicker18dragEnabledChangedEb@Qt_5 5.7.1~20161122
 _ZN10Qt3DRender13QObjectPicker19hoverEnabledChangedEb@Qt_5 5.7.1~20161122
 _ZN10Qt3DRender13QObjectPicker20containsMouseChangedEb@Qt_5 5.7.1~20161122
 _ZN10Qt3DRender13QObjectPicker5movedEPNS_10QPickEventE@Qt_5 5.7.1~20161122
 _ZN10Qt3DRender13QObjectPicker6exitedEv@Qt_5 5.7.1~20161122
 _ZN10Qt3DRender13QObjectPicker7clickedEPNS_10QPickEventE@Qt_5 5.7.1~20161122
 _ZN10Qt3DRender13QObjectPicker7enteredEv@Qt_5 5.7.1~20161122
 _ZN10Qt3DRender13QObjectPicker7pressedEPNS_10QPickEventE@Qt_5 5.7.1~20161122
 _ZN10Qt3DRender13QObjectPicker8releasedEPNS_10QPickEventE@Qt_5 5.7.1~20161122
 _ZN10Qt3DRender13QObjectPickerC1EPN8Qt3DCore5QNodeE@Qt_5 5.7.1~20161122
 _ZN10Qt3DRender13QObjectPickerC2EPN8Qt3DCore5QNodeE@Qt_5 5.7.1~20161122
 _ZN10Qt3DRender13QObjectPickerD0Ev@Qt_5 5.7.1~20161122
 _ZN10Qt3DRender13QObjectPickerD1Ev@Qt_5 5.7.1~20161122
 _ZN10Qt3DRender13QObjectPickerD2Ev@Qt_5 5.7.1~20161122
 _ZN10Qt3DRender13QRayCasterHit16staticMetaObjectE@Qt_5 5.11.1
 _ZN10Qt3DRender13QRayCasterHitC1ENS0_7HitTypeEN8Qt3DCore7QNodeIdEfRK9QVector3DS6_jjjj@Qt_5 5.11.1
 _ZN10Qt3DRender13QRayCasterHitC1ERKS0_@Qt_5 5.11.1
 _ZN10Qt3DRender13QRayCasterHitC1Ev@Qt_5 5.11.1
 _ZN10Qt3DRender13QRayCasterHitC2ENS0_7HitTypeEN8Qt3DCore7QNodeIdEfRK9QVector3DS6_jjjj@Qt_5 5.11.1
 _ZN10Qt3DRender13QRayCasterHitC2ERKS0_@Qt_5 5.11.1
 _ZN10Qt3DRender13QRayCasterHitC2Ev@Qt_5 5.11.1
 _ZN10Qt3DRender13QRayCasterHitD1Ev@Qt_5 5.11.1
 _ZN10Qt3DRender13QRayCasterHitD2Ev@Qt_5 5.11.1
 _ZN10Qt3DRender13QRayCasterHitaSERKS0_@Qt_5 5.11.1
 _ZN10Qt3DRender13QRenderAspect11qt_metacallEN11QMetaObject4CallEiPPv@Qt_5 5.7.1~20161122
 _ZN10Qt3DRender13QRenderAspect11qt_metacastEPKc@Qt_5 5.7.1~20161122
 _ZN10Qt3DRender13QRenderAspect12onRegisteredEv@Qt_5 5.7.1~20161122
 _ZN10Qt3DRender13QRenderAspect13jobsToExecuteEx@Qt_5 5.7.1~20161122
 _ZN10Qt3DRender13QRenderAspect14executeCommandERK11QStringList@Qt_5 5.7.1~20161122
 _ZN10Qt3DRender13QRenderAspect14onUnregisteredEv@Qt_5 5.7.1~20161122
 _ZN10Qt3DRender13QRenderAspect15onEngineStartupEv@Qt_5 5.7.1~20161122
 _ZN10Qt3DRender13QRenderAspect16staticMetaObjectE@Qt_5 5.7.1~20161122
 _ZN10Qt3DRender13QRenderAspectC1ENS0_10RenderTypeEP7QObject@Qt_5 5.7.1~20161122
 _ZN10Qt3DRender13QRenderAspectC1EP7QObject@Qt_5 5.7.1~20161122
 _ZN10Qt3DRender13QRenderAspectC2ENS0_10RenderTypeEP7QObject@Qt_5 5.7.1~20161122
 _ZN10Qt3DRender13QRenderAspectC2EP7QObject@Qt_5 5.7.1~20161122
 _ZN10Qt3DRender13QRenderAspectD0Ev@Qt_5 5.7.1~20161122
 _ZN10Qt3DRender13QRenderAspectD1Ev@Qt_5 5.7.1~20161122
 _ZN10Qt3DRender13QRenderAspectD2Ev@Qt_5 5.7.1~20161122
 _ZN10Qt3DRender13QRenderTarget11qt_metacallEN11QMetaObject4CallEiPPv@Qt_5 5.7.1~20161122
 _ZN10Qt3DRender13QRenderTarget11qt_metacastEPKc@Qt_5 5.7.1~20161122
 _ZN10Qt3DRender13QRenderTarget12removeOutputEPNS_19QRenderTargetOutputE@Qt_5 5.7.1~20161122
 _ZN10Qt3DRender13QRenderTarget16staticMetaObjectE@Qt_5 5.7.1~20161122
 _ZN10Qt3DRender13QRenderTarget9addOutputEPNS_19QRenderTargetOutputE@Qt_5 5.7.1~20161122
 _ZN10Qt3DRender13QRenderTargetC1EPN8Qt3DCore5QNodeE@Qt_5 5.7.1~20161122
 _ZN10Qt3DRender13QRenderTargetC2EPN8Qt3DCore5QNodeE@Qt_5 5.7.1~20161122
 _ZN10Qt3DRender13QRenderTargetD0Ev@Qt_5 5.7.1~20161122
 _ZN10Qt3DRender13QRenderTargetD1Ev@Qt_5 5.7.1~20161122
 _ZN10Qt3DRender13QRenderTargetD2Ev@Qt_5 5.7.1~20161122
 _ZN10Qt3DRender13QShaderFormat10setVersionERK14QVersionNumber@Qt_5 5.15.1
 _ZN10Qt3DRender13QShaderFormat13setExtensionsERK11QStringList@Qt_5 5.15.1
 _ZN10Qt3DRender13QShaderFormat13setShaderTypeENS0_10ShaderTypeE@Qt_5 5.15.1
 _ZN10Qt3DRender13QShaderFormat6setApiENS0_3ApiE@Qt_5 5.15.1
 _ZN10Qt3DRender13QShaderFormat9setVendorERK7QString@Qt_5 5.15.1
 _ZN10Qt3DRender13QShaderFormatC1Ev@Qt_5 5.15.1
 _ZN10Qt3DRender13QShaderFormatC2Ev@Qt_5 5.15.1
 _ZN10Qt3DRender13QTextureImage11qt_metacallEN11QMetaObject4CallEiPPv@Qt_5 5.7.1~20161122
 _ZN10Qt3DRender13QTextureImage11qt_metacastEPKc@Qt_5 5.7.1~20161122
 _ZN10Qt3DRender13QTextureImage11setMirroredEb@Qt_5 5.9.0
 _ZN10Qt3DRender13QTextureImage13sourceChangedERK4QUrl@Qt_5 5.7.1~20161122
 _ZN10Qt3DRender13QTextureImage13statusChangedENS0_6StatusE@Qt_5 5.7.1~20161122
 _ZN10Qt3DRender13QTextureImage15mirroredChangedEb@Qt_5 5.9.0
 _ZN10Qt3DRender13QTextureImage16sceneChangeEventERK14QSharedPointerIN8Qt3DCore12QSceneChangeEE@Qt_5 5.7.1~20161122
 _ZN10Qt3DRender13QTextureImage16staticMetaObjectE@Qt_5 5.7.1~20161122
 _ZN10Qt3DRender13QTextureImage9setSourceERK4QUrl@Qt_5 5.7.1~20161122
 _ZN10Qt3DRender13QTextureImage9setStatusENS0_6StatusE@Qt_5 5.7.1~20161122
 _ZN10Qt3DRender13QTextureImageC1EPN8Qt3DCore5QNodeE@Qt_5 5.7.1~20161122
 _ZN10Qt3DRender13QTextureImageC2EPN8Qt3DCore5QNodeE@Qt_5 5.7.1~20161122
 _ZN10Qt3DRender13QTextureImageD0Ev@Qt_5 5.7.1~20161122
 _ZN10Qt3DRender13QTextureImageD1Ev@Qt_5 5.7.1~20161122
 _ZN10Qt3DRender13QTextureImageD2Ev@Qt_5 5.7.1~20161122
 _ZN10Qt3DRender14QAbstractLight11qt_metacallEN11QMetaObject4CallEiPPv@Qt_5 5.7.1~20161122
 _ZN10Qt3DRender14QAbstractLight11qt_metacastEPKc@Qt_5 5.7.1~20161122
 _ZN10Qt3DRender14QAbstractLight12colorChangedERK6QColor@Qt_5 5.7.1~20161122
 _ZN10Qt3DRender14QAbstractLight12setIntensityEf@Qt_5 5.7.1~20161122
 _ZN10Qt3DRender14QAbstractLight16intensityChangedEf@Qt_5 5.7.1~20161122
 _ZN10Qt3DRender14QAbstractLight16staticMetaObjectE@Qt_5 5.7.1~20161122
 _ZN10Qt3DRender14QAbstractLight8setColorERK6QColor@Qt_5 5.7.1~20161122
 _ZN10Qt3DRender14QAbstractLightD0Ev@Qt_5 5.7.1~20161122
 _ZN10Qt3DRender14QAbstractLightD1Ev@Qt_5 5.7.1~20161122
 _ZN10Qt3DRender14QAbstractLightD2Ev@Qt_5 5.7.1~20161122
 _ZN10Qt3DRender14QAlphaCoverage11qt_metacallEN11QMetaObject4CallEiPPv@Qt_5 5.7.1~20161122
 _ZN10Qt3DRender14QAlphaCoverage11qt_metacastEPKc@Qt_5 5.7.1~20161122
 _ZN10Qt3DRender14QAlphaCoverage16staticMetaObjectE@Qt_5 5.7.1~20161122
 _ZN10Qt3DRender14QAlphaCoverageC1EPN8Qt3DCore5QNodeE@Qt_5 5.7.1~20161122
 _ZN10Qt3DRender14QAlphaCoverageC2EPN8Qt3DCore5QNodeE@Qt_5 5.7.1~20161122
 _ZN10Qt3DRender14QAlphaCoverageD0Ev@Qt_5 5.7.1~20161122
 _ZN10Qt3DRender14QAlphaCoverageD1Ev@Qt_5 5.7.1~20161122
 _ZN10Qt3DRender14QAlphaCoverageD2Ev@Qt_5 5.7.1~20161122
 _ZN10Qt3DRender14QBlendEquation11qt_metacallEN11QMetaObject4CallEiPPv@Qt_5 5.7.1~20161122
 _ZN10Qt3DRender14QBlendEquation11qt_metacastEPKc@Qt_5 5.7.1~20161122
 _ZN10Qt3DRender14QBlendEquation16setBlendFunctionENS0_13BlendFunctionE@Qt_5 5.7.1~20161122
 _ZN10Qt3DRender14QBlendEquation16staticMetaObjectE@Qt_5 5.7.1~20161122
 _ZN10Qt3DRender14QBlendEquation20blendFunctionChangedENS0_13BlendFunctionE@Qt_5 5.7.1~20161122
 _ZN10Qt3DRender14QBlendEquationC1EPN8Qt3DCore5QNodeE@Qt_5 5.7.1~20161122
 _ZN10Qt3DRender14QBlendEquationC2EPN8Qt3DCore5QNodeE@Qt_5 5.7.1~20161122
 _ZN10Qt3DRender14QBlendEquationD0Ev@Qt_5 5.7.1~20161122
 _ZN10Qt3DRender14QBlendEquationD1Ev@Qt_5 5.7.1~20161122
 _ZN10Qt3DRender14QBlendEquationD2Ev@Qt_5 5.7.1~20161122
 _ZN10Qt3DRender14QBufferCapture11qt_metacallEN11QMetaObject4CallEiPPv@Qt_5 5.9.0
 _ZN10Qt3DRender14QBufferCapture11qt_metacastEPKc@Qt_5 5.9.0
 _ZN10Qt3DRender14QBufferCapture16staticMetaObjectE@Qt_5 5.9.0
 _ZN10Qt3DRender14QBufferCaptureC1EPN8Qt3DCore5QNodeE@Qt_5 5.9.0
 _ZN10Qt3DRender14QBufferCaptureC2EPN8Qt3DCore5QNodeE@Qt_5 5.9.0
 _ZN10Qt3DRender14QBufferCaptureD0Ev@Qt_5 5.9.0
 _ZN10Qt3DRender14QBufferCaptureD1Ev@Qt_5 5.9.0
 _ZN10Qt3DRender14QBufferCaptureD2Ev@Qt_5 5.9.0
 _ZN10Qt3DRender14QLevelOfDetail11qt_metacallEN11QMetaObject4CallEiPPv@Qt_5 5.9.0
 _ZN10Qt3DRender14QLevelOfDetail11qt_metacastEPKc@Qt_5 5.9.0
 _ZN10Qt3DRender14QLevelOfDetail13cameraChangedEPNS_7QCameraE@Qt_5 5.9.0
 _ZN10Qt3DRender14QLevelOfDetail13setThresholdsERK7QVectorIdE@Qt_5 5.9.0
 _ZN10Qt3DRender14QLevelOfDetail15setCurrentIndexEi@Qt_5 5.9.0
 _ZN10Qt3DRender14QLevelOfDetail16sceneChangeEventERK14QSharedPointerIN8Qt3DCore12QSceneChangeEE@Qt_5 5.9.0
 _ZN10Qt3DRender14QLevelOfDetail16setThresholdTypeENS0_13ThresholdTypeE@Qt_5 5.9.0
 _ZN10Qt3DRender14QLevelOfDetail16staticMetaObjectE@Qt_5 5.9.0
 _ZN10Qt3DRender14QLevelOfDetail17setVolumeOverrideERKNS_28QLevelOfDetailBoundingSphereE@Qt_5 5.9.0
 _ZN10Qt3DRender14QLevelOfDetail17thresholdsChangedERK7QVectorIdE@Qt_5 5.9.0
 _ZN10Qt3DRender14QLevelOfDetail19currentIndexChangedEi@Qt_5 5.9.0
 _ZN10Qt3DRender14QLevelOfDetail20createBoundingSphereERK9QVector3Df@Qt_5 5.9.0
 _ZN10Qt3DRender14QLevelOfDetail20thresholdTypeChangedENS0_13ThresholdTypeE@Qt_5 5.9.0
 _ZN10Qt3DRender14QLevelOfDetail21volumeOverrideChangedERKNS_28QLevelOfDetailBoundingSphereE@Qt_5 5.9.0
 _ZN10Qt3DRender14QLevelOfDetail9setCameraEPNS_7QCameraE@Qt_5 5.9.0
 _ZN10Qt3DRender14QLevelOfDetailC1EPN8Qt3DCore5QNodeE@Qt_5 5.9.0
 _ZN10Qt3DRender14QLevelOfDetailC2EPN8Qt3DCore5QNodeE@Qt_5 5.9.0
 _ZN10Qt3DRender14QLevelOfDetailD0Ev@Qt_5 5.9.0
 _ZN10Qt3DRender14QLevelOfDetailD1Ev@Qt_5 5.9.0
 _ZN10Qt3DRender14QLevelOfDetailD2Ev@Qt_5 5.9.0
 _ZN10Qt3DRender14QMemoryBarrier11qt_metacallEN11QMetaObject4CallEiPPv@Qt_5 5.9.0
 _ZN10Qt3DRender14QMemoryBarrier11qt_metacastEPKc@Qt_5 5.9.0
 _ZN10Qt3DRender14QMemoryBarrier16staticMetaObjectE@Qt_5 5.9.0
 _ZN10Qt3DRender14QMemoryBarrier17setWaitOperationsE6QFlagsINS0_9OperationEE@Qt_5 5.9.0
 _ZN10Qt3DRender14QMemoryBarrier21waitOperationsChangedE6QFlagsINS0_9OperationEE@Qt_5 5.9.0
 _ZN10Qt3DRender14QMemoryBarrierC1EPN8Qt3DCore5QNodeE@Qt_5 5.9.0
 _ZN10Qt3DRender14QMemoryBarrierC1ERNS_21QMemoryBarrierPrivateEPN8Qt3DCore5QNodeE@Qt_5 5.9.0
 _ZN10Qt3DRender14QMemoryBarrierC2EPN8Qt3DCore5QNodeE@Qt_5 5.9.0
 _ZN10Qt3DRender14QMemoryBarrierC2ERNS_21QMemoryBarrierPrivateEPN8Qt3DCore5QNodeE@Qt_5 5.9.0
 _ZN10Qt3DRender14QMemoryBarrierD0Ev@Qt_5 5.9.0
 _ZN10Qt3DRender14QMemoryBarrierD1Ev@Qt_5 5.9.0
 _ZN10Qt3DRender14QMemoryBarrierD2Ev@Qt_5 5.9.0
 _ZN10Qt3DRender14QPickLineEvent11qt_metacallEN11QMetaObject4CallEiPPv@Qt_5 5.10.1
 _ZN10Qt3DRender14QPickLineEvent11qt_metacastEPKc@Qt_5 5.10.1
 _ZN10Qt3DRender14QPickLineEvent16staticMetaObjectE@Qt_5 5.10.1
 _ZN10Qt3DRender14QPickLineEventC1ERK7QPointFRK9QVector3DS6_fjjjNS_10QPickEvent7ButtonsEii@Qt_5 5.10.1
 _ZN10Qt3DRender14QPickLineEventC1Ev@Qt_5 5.10.1
 _ZN10Qt3DRender14QPickLineEventC2ERK7QPointFRK9QVector3DS6_fjjjNS_10QPickEvent7ButtonsEii@Qt_5 5.10.1
 _ZN10Qt3DRender14QPickLineEventC2Ev@Qt_5 5.10.1
 _ZN10Qt3DRender14QPickLineEventD0Ev@Qt_5 5.10.1
 _ZN10Qt3DRender14QPickLineEventD1Ev@Qt_5 5.10.1
 _ZN10Qt3DRender14QPickLineEventD2Ev@Qt_5 5.10.1
 _ZN10Qt3DRender14QPolygonOffset11qt_metacallEN11QMetaObject4CallEiPPv@Qt_5 5.7.1~20161122
 _ZN10Qt3DRender14QPolygonOffset11qt_metacastEPKc@Qt_5 5.7.1~20161122
 _ZN10Qt3DRender14QPolygonOffset13setDepthStepsEf@Qt_5 5.7.1~20161122
 _ZN10Qt3DRender14QPolygonOffset14setScaleFactorEf@Qt_5 5.7.1~20161122
 _ZN10Qt3DRender14QPolygonOffset16staticMetaObjectE@Qt_5 5.7.1~20161122
 _ZN10Qt3DRender14QPolygonOffset17depthStepsChangedEf@Qt_5 5.7.1~20161122
 _ZN10Qt3DRender14QPolygonOffset18scaleFactorChangedEf@Qt_5 5.7.1~20161122
 _ZN10Qt3DRender14QPolygonOffsetC1EPN8Qt3DCore5QNodeE@Qt_5 5.7.1~20161122
 _ZN10Qt3DRender14QPolygonOffsetC2EPN8Qt3DCore5QNodeE@Qt_5 5.7.1~20161122
 _ZN10Qt3DRender14QPolygonOffsetD0Ev@Qt_5 5.7.1~20161122
 _ZN10Qt3DRender14QPolygonOffsetD1Ev@Qt_5 5.7.1~20161122
 _ZN10Qt3DRender14QPolygonOffsetD2Ev@Qt_5 5.7.1~20161122
 _ZN10Qt3DRender14QRenderCapture11qt_metacallEN11QMetaObject4CallEiPPv@Qt_5 5.9.0
 _ZN10Qt3DRender14QRenderCapture11qt_metacastEPKc@Qt_5 5.9.0
 _ZN10Qt3DRender14QRenderCapture14requestCaptureERK5QRect@Qt_5 5.10.1
 _ZN10Qt3DRender14QRenderCapture14requestCaptureEi@Qt_5 5.9.0
 _ZN10Qt3DRender14QRenderCapture14requestCaptureEv@Qt_5 5.9.0
 _ZN10Qt3DRender14QRenderCapture16sceneChangeEventERK14QSharedPointerIN8Qt3DCore12QSceneChangeEE@Qt_5 5.9.0
 _ZN10Qt3DRender14QRenderCapture16staticMetaObjectE@Qt_5 5.9.0
 _ZN10Qt3DRender14QRenderCaptureC1EPN8Qt3DCore5QNodeE@Qt_5 5.9.0
 _ZN10Qt3DRender14QRenderCaptureC2EPN8Qt3DCore5QNodeE@Qt_5 5.9.0
 _ZN10Qt3DRender14QShaderProgram10loadSourceERK4QUrl@Qt_5 5.7.1~20161122
 _ZN10Qt3DRender14QShaderProgram10logChangedERK7QString@Qt_5 5.9.0
 _ZN10Qt3DRender14QShaderProgram11qt_metacallEN11QMetaObject4CallEiPPv@Qt_5 5.7.1~20161122
 _ZN10Qt3DRender14QShaderProgram11qt_metacastEPKc@Qt_5 5.7.1~20161122
 _ZN10Qt3DRender14QShaderProgram13formatChangedENS0_6FormatE@Qt_5 5.15.1
 _ZN10Qt3DRender14QShaderProgram13setShaderCodeENS0_10ShaderTypeERK10QByteArray@Qt_5 5.7.1~20161122
 _ZN10Qt3DRender14QShaderProgram13statusChangedENS0_6StatusE@Qt_5 5.9.0
 _ZN10Qt3DRender14QShaderProgram16sceneChangeEventERK14QSharedPointerIN8Qt3DCore12QSceneChangeEE@Qt_5 5.9.0
 _ZN10Qt3DRender14QShaderProgram16staticMetaObjectE@Qt_5 5.7.1~20161122
 _ZN10Qt3DRender14QShaderProgram19setVertexShaderCodeERK10QByteArray@Qt_5 5.7.1~20161122
 _ZN10Qt3DRender14QShaderProgram20setComputeShaderCodeERK10QByteArray@Qt_5 5.7.1~20161122
 _ZN10Qt3DRender14QShaderProgram21setFragmentShaderCodeERK10QByteArray@Qt_5 5.7.1~20161122
 _ZN10Qt3DRender14QShaderProgram21setGeometryShaderCodeERK10QByteArray@Qt_5 5.7.1~20161122
 _ZN10Qt3DRender14QShaderProgram23vertexShaderCodeChangedERK10QByteArray@Qt_5 5.7.1~20161122
 _ZN10Qt3DRender14QShaderProgram24computeShaderCodeChangedERK10QByteArray@Qt_5 5.7.1~20161122
 _ZN10Qt3DRender14QShaderProgram25fragmentShaderCodeChangedERK10QByteArray@Qt_5 5.7.1~20161122
 _ZN10Qt3DRender14QShaderProgram25geometryShaderCodeChangedERK10QByteArray@Qt_5 5.7.1~20161122
 _ZN10Qt3DRender14QShaderProgram32setTessellationControlShaderCodeERK10QByteArray@Qt_5 5.7.1~20161122
 _ZN10Qt3DRender14QShaderProgram35setTessellationEvaluationShaderCodeERK10QByteArray@Qt_5 5.7.1~20161122
 _ZN10Qt3DRender14QShaderProgram36tessellationControlShaderCodeChangedERK10QByteArray@Qt_5 5.7.1~20161122
 _ZN10Qt3DRender14QShaderProgram39tessellationEvaluationShaderCodeChangedERK10QByteArray@Qt_5 5.7.1~20161122
 _ZN10Qt3DRender14QShaderProgram9setFormatENS0_6FormatE@Qt_5 5.15.1
 _ZN10Qt3DRender14QShaderProgramC1EPN8Qt3DCore5QNodeE@Qt_5 5.7.1~20161122
 _ZN10Qt3DRender14QShaderProgramC2EPN8Qt3DCore5QNodeE@Qt_5 5.7.1~20161122
 _ZN10Qt3DRender14QShaderProgramD0Ev@Qt_5 5.7.1~20161122
 _ZN10Qt3DRender14QShaderProgramD1Ev@Qt_5 5.7.1~20161122
 _ZN10Qt3DRender14QShaderProgramD2Ev@Qt_5 5.7.1~20161122
 _ZN10Qt3DRender14QTextureBuffer11qt_metacallEN11QMetaObject4CallEiPPv@Qt_5 5.7.1~20161122
 _ZN10Qt3DRender14QTextureBuffer11qt_metacastEPKc@Qt_5 5.7.1~20161122
 _ZN10Qt3DRender14QTextureBuffer16staticMetaObjectE@Qt_5 5.7.1~20161122
 _ZN10Qt3DRender14QTextureBufferC1EPN8Qt3DCore5QNodeE@Qt_5 5.7.1~20161122
 _ZN10Qt3DRender14QTextureBufferC2EPN8Qt3DCore5QNodeE@Qt_5 5.7.1~20161122
 _ZN10Qt3DRender14QTextureBufferD0Ev@Qt_5 5.7.1~20161122
 _ZN10Qt3DRender14QTextureBufferD1Ev@Qt_5 5.7.1~20161122
 _ZN10Qt3DRender14QTextureBufferD2Ev@Qt_5 5.7.1~20161122
 _ZN10Qt3DRender14QTextureLoader11qt_metacallEN11QMetaObject4CallEiPPv@Qt_5 5.7.1~20161122
 _ZN10Qt3DRender14QTextureLoader11qt_metacastEPKc@Qt_5 5.7.1~20161122
 _ZN10Qt3DRender14QTextureLoader11setMirroredEb@Qt_5 5.9.0
 _ZN10Qt3DRender14QTextureLoader13sourceChangedERK4QUrl@Qt_5 5.7.1~20161122
 _ZN10Qt3DRender14QTextureLoader15mirroredChangedEb@Qt_5 5.9.0
 _ZN10Qt3DRender14QTextureLoader16staticMetaObjectE@Qt_5 5.7.1~20161122
 _ZN10Qt3DRender14QTextureLoader9setSourceERK4QUrl@Qt_5 5.7.1~20161122
 _ZN10Qt3DRender14QTextureLoaderC1EPN8Qt3DCore5QNodeE@Qt_5 5.7.1~20161122
 _ZN10Qt3DRender14QTextureLoaderC2EPN8Qt3DCore5QNodeE@Qt_5 5.7.1~20161122
 _ZN10Qt3DRender14QTextureLoaderD0Ev@Qt_5 5.7.1~20161122
 _ZN10Qt3DRender14QTextureLoaderD1Ev@Qt_5 5.7.1~20161122
 _ZN10Qt3DRender14QTextureLoaderD2Ev@Qt_5 5.7.1~20161122
 _ZN10Qt3DRender15QCameraSelector11qt_metacallEN11QMetaObject4CallEiPPv@Qt_5 5.7.1~20161122
 _ZN10Qt3DRender15QCameraSelector11qt_metacastEPKc@Qt_5 5.7.1~20161122
 _ZN10Qt3DRender15QCameraSelector13cameraChangedEPN8Qt3DCore7QEntityE@Qt_5 5.7.1~20161122
 _ZN10Qt3DRender15QCameraSelector16staticMetaObjectE@Qt_5 5.7.1~20161122
 _ZN10Qt3DRender15QCameraSelector9setCameraEPN8Qt3DCore7QEntityE@Qt_5 5.7.1~20161122
 _ZN10Qt3DRender15QCameraSelectorC1EPN8Qt3DCore5QNodeE@Qt_5 5.7.1~20161122
 _ZN10Qt3DRender15QCameraSelectorC1ERNS_22QCameraSelectorPrivateEPN8Qt3DCore5QNodeE@Qt_5 5.7.1~20161122
 _ZN10Qt3DRender15QCameraSelectorC2EPN8Qt3DCore5QNodeE@Qt_5 5.7.1~20161122
 _ZN10Qt3DRender15QCameraSelectorC2ERNS_22QCameraSelectorPrivateEPN8Qt3DCore5QNodeE@Qt_5 5.7.1~20161122
 _ZN10Qt3DRender15QCameraSelectorD0Ev@Qt_5 5.7.1~20161122
 _ZN10Qt3DRender15QCameraSelectorD1Ev@Qt_5 5.7.1~20161122
 _ZN10Qt3DRender15QCameraSelectorD2Ev@Qt_5 5.7.1~20161122
 _ZN10Qt3DRender15QComputeCommand10setRunTypeENS0_7RunTypeE@Qt_5 5.14.2
 _ZN10Qt3DRender15QComputeCommand11qt_metacallEN11QMetaObject4CallEiPPv@Qt_5 5.7.1~20161122
 _ZN10Qt3DRender15QComputeCommand11qt_metacastEPKc@Qt_5 5.7.1~20161122
 _ZN10Qt3DRender15QComputeCommand13setWorkGroupXEi@Qt_5 5.7.1~20161122
 _ZN10Qt3DRender15QComputeCommand13setWorkGroupYEi@Qt_5 5.7.1~20161122
 _ZN10Qt3DRender15QComputeCommand13setWorkGroupZEi@Qt_5 5.7.1~20161122
 _ZN10Qt3DRender15QComputeCommand14runTypeChangedEv@Qt_5 5.14.2
 _ZN10Qt3DRender15QComputeCommand16staticMetaObjectE@Qt_5 5.7.1~20161122
 _ZN10Qt3DRender15QComputeCommand17workGroupXChangedEv@Qt_5 5.7.1~20161122
 _ZN10Qt3DRender15QComputeCommand17workGroupYChangedEv@Qt_5 5.7.1~20161122
 _ZN10Qt3DRender15QComputeCommand17workGroupZChangedEv@Qt_5 5.7.1~20161122
 _ZN10Qt3DRender15QComputeCommand7triggerEi@Qt_5 5.14.2
 _ZN10Qt3DRender15QComputeCommand7triggerEiiii@Qt_5 5.14.2
 _ZN10Qt3DRender15QComputeCommandC1EPN8Qt3DCore5QNodeE@Qt_5 5.7.1~20161122
 _ZN10Qt3DRender15QComputeCommandC2EPN8Qt3DCore5QNodeE@Qt_5 5.7.1~20161122
 _ZN10Qt3DRender15QComputeCommandD0Ev@Qt_5 5.7.1~20161122
 _ZN10Qt3DRender15QComputeCommandD1Ev@Qt_5 5.7.1~20161122
 _ZN10Qt3DRender15QComputeCommandD2Ev@Qt_5 5.7.1~20161122
 _ZN10Qt3DRender15QFrameGraphNode11qt_metacallEN11QMetaObject4CallEiPPv@Qt_5 5.7.1~20161122
 _ZN10Qt3DRender15QFrameGraphNode11qt_metacastEPKc@Qt_5 5.7.1~20161122
 _ZN10Qt3DRender15QFrameGraphNode15onParentChangedEP7QObject@Qt_5 5.12.4
 _ZN10Qt3DRender15QFrameGraphNode16staticMetaObjectE@Qt_5 5.7.1~20161122
 _ZN10Qt3DRender15QFrameGraphNodeC1EPN8Qt3DCore5QNodeE@Qt_5 5.7.1~20161122
 _ZN10Qt3DRender15QFrameGraphNodeC2EPN8Qt3DCore5QNodeE@Qt_5 5.7.1~20161122
 _ZN10Qt3DRender15QFrameGraphNodeD0Ev@Qt_5 5.7.1~20161122
 _ZN10Qt3DRender15QFrameGraphNodeD1Ev@Qt_5 5.7.1~20161122
 _ZN10Qt3DRender15QFrameGraphNodeD2Ev@Qt_5 5.7.1~20161122
 _ZN10Qt3DRender15QFrustumCulling11qt_metacallEN11QMetaObject4CallEiPPv@Qt_5 5.7.1~20161122
 _ZN10Qt3DRender15QFrustumCulling11qt_metacastEPKc@Qt_5 5.7.1~20161122
 _ZN10Qt3DRender15QFrustumCulling16staticMetaObjectE@Qt_5 5.7.1~20161122
 _ZN10Qt3DRender15QFrustumCullingC1EPN8Qt3DCore5QNodeE@Qt_5 5.7.1~20161122
 _ZN10Qt3DRender15QFrustumCullingC2EPN8Qt3DCore5QNodeE@Qt_5 5.7.1~20161122
 _ZN10Qt3DRender15QFrustumCullingD0Ev@Qt_5 5.7.1~20161122
 _ZN10Qt3DRender15QFrustumCullingD1Ev@Qt_5 5.7.1~20161122
 _ZN10Qt3DRender15QFrustumCullingD2Ev@Qt_5 5.7.1~20161122
 _ZN10Qt3DRender15QPickPointEvent11qt_metacallEN11QMetaObject4CallEiPPv@Qt_5 5.10.1
 _ZN10Qt3DRender15QPickPointEvent11qt_metacastEPKc@Qt_5 5.10.1
 _ZN10Qt3DRender15QPickPointEvent16staticMetaObjectE@Qt_5 5.10.1
 _ZN10Qt3DRender15QPickPointEventC1ERK7QPointFRK9QVector3DS6_fjNS_10QPickEvent7ButtonsEii@Qt_5 5.10.1
 _ZN10Qt3DRender15QPickPointEventC1Ev@Qt_5 5.10.1
 _ZN10Qt3DRender15QPickPointEventC2ERK7QPointFRK9QVector3DS6_fjNS_10QPickEvent7ButtonsEii@Qt_5 5.10.1
 _ZN10Qt3DRender15QPickPointEventC2Ev@Qt_5 5.10.1
 _ZN10Qt3DRender15QPickPointEventD0Ev@Qt_5 5.10.1
 _ZN10Qt3DRender15QPickPointEventD1Ev@Qt_5 5.10.1
 _ZN10Qt3DRender15QPickPointEventD2Ev@Qt_5 5.10.1
 _ZN10Qt3DRender15QRenderSettings11qt_metacallEN11QMetaObject4CallEiPPv@Qt_5 5.7.1~20161122
 _ZN10Qt3DRender15QRenderSettings11qt_metacastEPKc@Qt_5 5.7.1~20161122
 _ZN10Qt3DRender15QRenderSettings15pickingSettingsEv@Qt_5 5.7.1~20161122
 _ZN10Qt3DRender15QRenderSettings15setRenderPolicyENS0_12RenderPolicyE@Qt_5 5.7.1~20161122
 _ZN10Qt3DRender15QRenderSettings16staticMetaObjectE@Qt_5 5.7.1~20161122
 _ZN10Qt3DRender15QRenderSettings18renderCapabilitiesEv@Qt_5 5.15.1
 _ZN10Qt3DRender15QRenderSettings19renderPolicyChangedENS0_12RenderPolicyE@Qt_5 5.7.1~20161122
 _ZN10Qt3DRender15QRenderSettings19setActiveFrameGraphEPNS_15QFrameGraphNodeE@Qt_5 5.7.1~20161122
 _ZN10Qt3DRender15QRenderSettings23activeFrameGraphChangedEPNS_15QFrameGraphNodeE@Qt_5 5.7.1~20161122
 _ZN10Qt3DRender15QRenderSettingsC1EPN8Qt3DCore5QNodeE@Qt_5 5.7.1~20161122
 _ZN10Qt3DRender15QRenderSettingsC2EPN8Qt3DCore5QNodeE@Qt_5 5.7.1~20161122
 _ZN10Qt3DRender15QRenderSettingsD0Ev@Qt_5 5.7.1~20161122
 _ZN10Qt3DRender15QRenderSettingsD1Ev@Qt_5 5.7.1~20161122
 _ZN10Qt3DRender15QRenderSettingsD2Ev@Qt_5 5.7.1~20161122
 _ZN10Qt3DRender15QRenderStateSet11qt_metacallEN11QMetaObject4CallEiPPv@Qt_5 5.7.1~20161122
 _ZN10Qt3DRender15QRenderStateSet11qt_metacastEPKc@Qt_5 5.7.1~20161122
 _ZN10Qt3DRender15QRenderStateSet14addRenderStateEPNS_12QRenderStateE@Qt_5 5.7.1~20161122
 _ZN10Qt3DRender15QRenderStateSet16staticMetaObjectE@Qt_5 5.7.1~20161122
 _ZN10Qt3DRender15QRenderStateSet17removeRenderStateEPNS_12QRenderStateE@Qt_5 5.7.1~20161122
 _ZN10Qt3DRender15QRenderStateSetC1EPN8Qt3DCore5QNodeE@Qt_5 5.7.1~20161122
 _ZN10Qt3DRender15QRenderStateSetC2EPN8Qt3DCore5QNodeE@Qt_5 5.7.1~20161122
 _ZN10Qt3DRender15QRenderStateSetD0Ev@Qt_5 5.7.1~20161122
 _ZN10Qt3DRender15QRenderStateSetD1Ev@Qt_5 5.7.1~20161122
 _ZN10Qt3DRender15QRenderStateSetD2Ev@Qt_5 5.7.1~20161122
 _ZN10Qt3DRender15QShaderNodePortC1Ev@Qt_5 5.15.1
 _ZN10Qt3DRender15QShaderNodePortC2Ev@Qt_5 5.15.1
 _ZN10Qt3DRender15QSubtreeEnabler11qt_metacallEN11QMetaObject4CallEiPPv@Qt_5 5.14.2
 _ZN10Qt3DRender15QSubtreeEnabler11qt_metacastEPKc@Qt_5 5.14.2
 _ZN10Qt3DRender15QSubtreeEnabler13requestUpdateEv@Qt_5 5.14.2
 _ZN10Qt3DRender15QSubtreeEnabler13setEnablementENS0_10EnablementE@Qt_5 5.14.2
 _ZN10Qt3DRender15QSubtreeEnabler16staticMetaObjectE@Qt_5 5.14.2
 _ZN10Qt3DRender15QSubtreeEnabler17enablementChangedENS0_10EnablementE@Qt_5 5.14.2
 _ZN10Qt3DRender15QSubtreeEnablerC1EPN8Qt3DCore5QNodeE@Qt_5 5.14.2
 _ZN10Qt3DRender15QSubtreeEnablerC2EPN8Qt3DCore5QNodeE@Qt_5 5.14.2
 _ZN10Qt3DRender15QSubtreeEnablerD0Ev@Qt_5 5.14.2
 _ZN10Qt3DRender15QSubtreeEnablerD1Ev@Qt_5 5.14.2
 _ZN10Qt3DRender15QSubtreeEnablerD2Ev@Qt_5 5.14.2
 _ZN10Qt3DRender15QTexture1DArray11qt_metacallEN11QMetaObject4CallEiPPv@Qt_5 5.7.1~20161122
 _ZN10Qt3DRender15QTexture1DArray11qt_metacastEPKc@Qt_5 5.7.1~20161122
 _ZN10Qt3DRender15QTexture1DArray16staticMetaObjectE@Qt_5 5.7.1~20161122
 _ZN10Qt3DRender15QTexture1DArrayC1EPN8Qt3DCore5QNodeE@Qt_5 5.7.1~20161122
 _ZN10Qt3DRender15QTexture1DArrayC2EPN8Qt3DCore5QNodeE@Qt_5 5.7.1~20161122
 _ZN10Qt3DRender15QTexture1DArrayD0Ev@Qt_5 5.7.1~20161122
 _ZN10Qt3DRender15QTexture1DArrayD1Ev@Qt_5 5.7.1~20161122
 _ZN10Qt3DRender15QTexture1DArrayD2Ev@Qt_5 5.7.1~20161122
 _ZN10Qt3DRender15QTexture2DArray11qt_metacallEN11QMetaObject4CallEiPPv@Qt_5 5.7.1~20161122
 _ZN10Qt3DRender15QTexture2DArray11qt_metacastEPKc@Qt_5 5.7.1~20161122
 _ZN10Qt3DRender15QTexture2DArray16staticMetaObjectE@Qt_5 5.7.1~20161122
 _ZN10Qt3DRender15QTexture2DArrayC1EPN8Qt3DCore5QNodeE@Qt_5 5.7.1~20161122
 _ZN10Qt3DRender15QTexture2DArrayC2EPN8Qt3DCore5QNodeE@Qt_5 5.7.1~20161122
 _ZN10Qt3DRender15QTexture2DArrayD0Ev@Qt_5 5.7.1~20161122
 _ZN10Qt3DRender15QTexture2DArrayD1Ev@Qt_5 5.7.1~20161122
 _ZN10Qt3DRender15QTexture2DArrayD2Ev@Qt_5 5.7.1~20161122
 _ZN10Qt3DRender15QTextureCubeMap11qt_metacallEN11QMetaObject4CallEiPPv@Qt_5 5.7.1~20161122
 _ZN10Qt3DRender15QTextureCubeMap11qt_metacastEPKc@Qt_5 5.7.1~20161122
 _ZN10Qt3DRender15QTextureCubeMap16staticMetaObjectE@Qt_5 5.7.1~20161122
 _ZN10Qt3DRender15QTextureCubeMapC1EPN8Qt3DCore5QNodeE@Qt_5 5.7.1~20161122
 _ZN10Qt3DRender15QTextureCubeMapC2EPN8Qt3DCore5QNodeE@Qt_5 5.7.1~20161122
 _ZN10Qt3DRender15QTextureCubeMapD0Ev@Qt_5 5.7.1~20161122
 _ZN10Qt3DRender15QTextureCubeMapD1Ev@Qt_5 5.7.1~20161122
 _ZN10Qt3DRender15QTextureCubeMapD2Ev@Qt_5 5.7.1~20161122
 _ZN10Qt3DRender16QAbstractFunctorD0Ev@Qt_5 5.7.1~20161122
 _ZN10Qt3DRender16QAbstractFunctorD1Ev@Qt_5 5.7.1~20161122
 _ZN10Qt3DRender16QAbstractFunctorD2Ev@Qt_5 5.7.1~20161122
 _ZN10Qt3DRender16QAbstractTexture10setSamplesEi@Qt_5 5.9.0
 _ZN10Qt3DRender16QAbstractTexture10updateDataERKNS_18QTextureDataUpdateE@Qt_5 5.14.2
 _ZN10Qt3DRender16QAbstractTexture11qt_metacallEN11QMetaObject4CallEiPPv@Qt_5 5.7.1~20161122
 _ZN10Qt3DRender16QAbstractTexture11qt_metacastEPKc@Qt_5 5.7.1~20161122
 _ZN10Qt3DRender16QAbstractTexture11setWrapModeERKNS_16QTextureWrapModeE@Qt_5 5.7.1~20161122
 _ZN10Qt3DRender16QAbstractTexture12depthChangedEi@Qt_5 5.7.1~20161122
 _ZN10Qt3DRender16QAbstractTexture12widthChangedEi@Qt_5 5.7.1~20161122
 _ZN10Qt3DRender16QAbstractTexture13formatChangedENS0_13TextureFormatE@Qt_5 5.7.1~20161122
 _ZN10Qt3DRender16QAbstractTexture13handleChangedE8QVariant@Qt_5 5.14.2
 _ZN10Qt3DRender16QAbstractTexture13heightChangedEi@Qt_5 5.7.1~20161122
 _ZN10Qt3DRender16QAbstractTexture13layersChangedEi@Qt_5 5.7.1~20161122
 _ZN10Qt3DRender16QAbstractTexture13setHandleTypeENS0_10HandleTypeE@Qt_5 5.14.2
 _ZN10Qt3DRender16QAbstractTexture13statusChangedENS0_6StatusE@Qt_5 5.7.1~20161122
 _ZN10Qt3DRender16QAbstractTexture14samplesChangedEi@Qt_5 5.9.0
 _ZN10Qt3DRender16QAbstractTexture15addTextureImageEPNS_21QAbstractTextureImageE@Qt_5 5.7.1~20161122
 _ZN10Qt3DRender16QAbstractTexture16sceneChangeEventERK14QSharedPointerIN8Qt3DCore12QSceneChangeEE@Qt_5 5.10.1
 _ZN10Qt3DRender16QAbstractTexture16staticMetaObjectE@Qt_5 5.7.1~20161122
 _ZN10Qt3DRender16QAbstractTexture17handleTypeChangedENS0_10HandleTypeE@Qt_5 5.14.2
 _ZN10Qt3DRender16QAbstractTexture17setComparisonModeENS0_14ComparisonModeE@Qt_5 5.7.1~20161122
 _ZN10Qt3DRender16QAbstractTexture18removeTextureImageEPNS_21QAbstractTextureImageE@Qt_5 5.7.1~20161122
 _ZN10Qt3DRender16QAbstractTexture18setGenerateMipMapsEb@Qt_5 5.7.1~20161122
 _ZN10Qt3DRender16QAbstractTexture20setMaximumAnisotropyEf@Qt_5 5.7.1~20161122
 _ZN10Qt3DRender16QAbstractTexture21comparisonModeChangedENS0_14ComparisonModeE@Qt_5 5.7.1~20161122
 _ZN10Qt3DRender16QAbstractTexture21setComparisonFunctionENS0_18ComparisonFunctionE@Qt_5 5.7.1~20161122
 _ZN10Qt3DRender16QAbstractTexture21setMinificationFilterENS0_6FilterE@Qt_5 5.7.1~20161122
 _ZN10Qt3DRender16QAbstractTexture22generateMipMapsChangedEb@Qt_5 5.7.1~20161122
 _ZN10Qt3DRender16QAbstractTexture22setMagnificationFilterENS0_6FilterE@Qt_5 5.7.1~20161122
 _ZN10Qt3DRender16QAbstractTexture24maximumAnisotropyChangedEf@Qt_5 5.7.1~20161122
 _ZN10Qt3DRender16QAbstractTexture25comparisonFunctionChangedENS0_18ComparisonFunctionE@Qt_5 5.7.1~20161122
 _ZN10Qt3DRender16QAbstractTexture25minificationFilterChangedENS0_6FilterE@Qt_5 5.7.1~20161122
 _ZN10Qt3DRender16QAbstractTexture26magnificationFilterChangedENS0_6FilterE@Qt_5 5.7.1~20161122
 _ZN10Qt3DRender16QAbstractTexture7setSizeEiii@Qt_5 5.7.1~20161122
 _ZN10Qt3DRender16QAbstractTexture8setDepthEi@Qt_5 5.7.1~20161122
 _ZN10Qt3DRender16QAbstractTexture8setWidthEi@Qt_5 5.7.1~20161122
 _ZN10Qt3DRender16QAbstractTexture8wrapModeEv@Qt_5 5.7.1~20161122
 _ZN10Qt3DRender16QAbstractTexture9setFormatENS0_13TextureFormatE@Qt_5 5.7.1~20161122
 _ZN10Qt3DRender16QAbstractTexture9setHandleERK8QVariant@Qt_5 5.14.2
 _ZN10Qt3DRender16QAbstractTexture9setHeightEi@Qt_5 5.7.1~20161122
 _ZN10Qt3DRender16QAbstractTexture9setLayersEi@Qt_5 5.7.1~20161122
 _ZN10Qt3DRender16QAbstractTexture9setStatusENS0_6StatusE@Qt_5 5.7.1~20161122
 _ZN10Qt3DRender16QAbstractTextureC1ENS0_6TargetEPN8Qt3DCore5QNodeE@Qt_5 5.7.1~20161122
 _ZN10Qt3DRender16QAbstractTextureC1EPN8Qt3DCore5QNodeE@Qt_5 5.7.1~20161122
 _ZN10Qt3DRender16QAbstractTextureC2ENS0_6TargetEPN8Qt3DCore5QNodeE@Qt_5 5.7.1~20161122
 _ZN10Qt3DRender16QAbstractTextureC2EPN8Qt3DCore5QNodeE@Qt_5 5.7.1~20161122
 _ZN10Qt3DRender16QAbstractTextureD0Ev@Qt_5 5.7.1~20161122
 _ZN10Qt3DRender16QAbstractTextureD1Ev@Qt_5 5.7.1~20161122
 _ZN10Qt3DRender16QAbstractTextureD2Ev@Qt_5 5.7.1~20161122
 _ZN10Qt3DRender16QBlitFramebuffer11qt_metacallEN11QMetaObject4CallEiPPv@Qt_5 5.10.1
 _ZN10Qt3DRender16QBlitFramebuffer11qt_metacastEPKc@Qt_5 5.10.1
 _ZN10Qt3DRender16QBlitFramebuffer13setSourceRectERK6QRectF@Qt_5 5.10.1
 _ZN10Qt3DRender16QBlitFramebuffer13sourceChangedEv@Qt_5 5.10.1
 _ZN10Qt3DRender16QBlitFramebuffer14setDestinationEPNS_13QRenderTargetE@Qt_5 5.10.1
 _ZN10Qt3DRender16QBlitFramebuffer16staticMetaObjectE@Qt_5 5.10.1
 _ZN10Qt3DRender16QBlitFramebuffer17sourceRectChangedEv@Qt_5 5.10.1
 _ZN10Qt3DRender16QBlitFramebuffer18destinationChangedEv@Qt_5 5.10.1
 _ZN10Qt3DRender16QBlitFramebuffer18setDestinationRectERK6QRectF@Qt_5 5.10.1
 _ZN10Qt3DRender16QBlitFramebuffer22destinationRectChangedEv@Qt_5 5.10.1
 _ZN10Qt3DRender16QBlitFramebuffer22setInterpolationMethodENS0_19InterpolationMethodE@Qt_5 5.10.1
 _ZN10Qt3DRender16QBlitFramebuffer24setSourceAttachmentPointENS_19QRenderTargetOutput15AttachmentPointE@Qt_5 5.10.1
 _ZN10Qt3DRender16QBlitFramebuffer26interpolationMethodChangedEv@Qt_5 5.10.1
 _ZN10Qt3DRender16QBlitFramebuffer28sourceAttachmentPointChangedEv@Qt_5 5.10.1
 _ZN10Qt3DRender16QBlitFramebuffer29setDestinationAttachmentPointENS_19QRenderTargetOutput15AttachmentPointE@Qt_5 5.10.1
 _ZN10Qt3DRender16QBlitFramebuffer33destinationAttachmentPointChangedEv@Qt_5 5.10.1
 _ZN10Qt3DRender16QBlitFramebuffer9setSourceEPNS_13QRenderTargetE@Qt_5 5.10.1
 _ZN10Qt3DRender16QBlitFramebufferC1EPN8Qt3DCore5QNodeE@Qt_5 5.10.1
 _ZN10Qt3DRender16QBlitFramebufferC1ERNS_23QBlitFramebufferPrivateEPN8Qt3DCore5QNodeE@Qt_5 5.10.1
 _ZN10Qt3DRender16QBlitFramebufferC2EPN8Qt3DCore5QNodeE@Qt_5 5.10.1
 _ZN10Qt3DRender16QBlitFramebufferC2ERNS_23QBlitFramebufferPrivateEPN8Qt3DCore5QNodeE@Qt_5 5.10.1
 _ZN10Qt3DRender16QBlitFramebufferD0Ev@Qt_5 5.10.1
 _ZN10Qt3DRender16QBlitFramebufferD1Ev@Qt_5 5.10.1
 _ZN10Qt3DRender16QBlitFramebufferD2Ev@Qt_5 5.10.1
 _ZN10Qt3DRender16QDispatchCompute11qt_metacallEN11QMetaObject4CallEiPPv@Qt_5 5.7.1~20161122
 _ZN10Qt3DRender16QDispatchCompute11qt_metacastEPKc@Qt_5 5.7.1~20161122
 _ZN10Qt3DRender16QDispatchCompute13setWorkGroupXEi@Qt_5 5.7.1~20161122
 _ZN10Qt3DRender16QDispatchCompute13setWorkGroupYEi@Qt_5 5.7.1~20161122
 _ZN10Qt3DRender16QDispatchCompute13setWorkGroupZEi@Qt_5 5.7.1~20161122
 _ZN10Qt3DRender16QDispatchCompute16staticMetaObjectE@Qt_5 5.7.1~20161122
 _ZN10Qt3DRender16QDispatchCompute17workGroupXChangedEv@Qt_5 5.7.1~20161122
 _ZN10Qt3DRender16QDispatchCompute17workGroupYChangedEv@Qt_5 5.7.1~20161122
 _ZN10Qt3DRender16QDispatchCompute17workGroupZChangedEv@Qt_5 5.7.1~20161122
 _ZN10Qt3DRender16QDispatchComputeC1EPN8Qt3DCore5QNodeE@Qt_5 5.7.1~20161122
 _ZN10Qt3DRender16QDispatchComputeC2EPN8Qt3DCore5QNodeE@Qt_5 5.7.1~20161122
 _ZN10Qt3DRender16QDispatchComputeD0Ev@Qt_5 5.7.1~20161122
 _ZN10Qt3DRender16QDispatchComputeD1Ev@Qt_5 5.7.1~20161122
 _ZN10Qt3DRender16QDispatchComputeD2Ev@Qt_5 5.7.1~20161122
 _ZN10Qt3DRender16QGeometryFactoryD0Ev@Qt_5 5.7.1~20161122
 _ZN10Qt3DRender16QGeometryFactoryD1Ev@Qt_5 5.7.1~20161122
 _ZN10Qt3DRender16QGeometryFactoryD2Ev@Qt_5 5.7.1~20161122
 _ZN10Qt3DRender16QPickingSettings11qt_metacallEN11QMetaObject4CallEiPPv@Qt_5 5.7.1~20161122
 _ZN10Qt3DRender16QPickingSettings11qt_metacastEPKc@Qt_5 5.7.1~20161122
 _ZN10Qt3DRender16QPickingSettings13setPickMethodENS0_10PickMethodE@Qt_5 5.7.1~20161122
 _ZN10Qt3DRender16QPickingSettings16staticMetaObjectE@Qt_5 5.7.1~20161122
 _ZN10Qt3DRender16QPickingSettings17pickMethodChangedENS0_10PickMethodE@Qt_5 5.7.1~20161122
 _ZN10Qt3DRender16QPickingSettings17setPickResultModeENS0_14PickResultModeE@Qt_5 5.7.1~20161122
 _ZN10Qt3DRender16QPickingSettings21pickResultModeChangedENS0_14PickResultModeE@Qt_5 5.7.1~20161122
 _ZN10Qt3DRender16QPickingSettings22setWorldSpaceToleranceEf@Qt_5 5.10.1
 _ZN10Qt3DRender16QPickingSettings26worldSpaceToleranceChangedEf@Qt_5 5.10.1
 _ZN10Qt3DRender16QPickingSettings29setFaceOrientationPickingModeENS0_26FaceOrientationPickingModeE@Qt_5 5.9.0
 _ZN10Qt3DRender16QPickingSettings33faceOrientationPickingModeChangedENS0_26FaceOrientationPickingModeE@Qt_5 5.9.0
 _ZN10Qt3DRender16QPickingSettingsC1EPN8Qt3DCore5QNodeE@Qt_5 5.7.1~20161122
 _ZN10Qt3DRender16QPickingSettingsC2EPN8Qt3DCore5QNodeE@Qt_5 5.7.1~20161122
 _ZN10Qt3DRender16QPickingSettingsD0Ev@Qt_5 5.7.1~20161122
 _ZN10Qt3DRender16QPickingSettingsD1Ev@Qt_5 5.7.1~20161122
 _ZN10Qt3DRender16QPickingSettingsD2Ev@Qt_5 5.7.1~20161122
 _ZN10Qt3DRender16QProximityFilter11qt_metacallEN11QMetaObject4CallEiPPv@Qt_5 5.10.1
 _ZN10Qt3DRender16QProximityFilter11qt_metacastEPKc@Qt_5 5.10.1
 _ZN10Qt3DRender16QProximityFilter13entityChangedEPN8Qt3DCore7QEntityE@Qt_5 5.10.1
 _ZN10Qt3DRender16QProximityFilter16staticMetaObjectE@Qt_5 5.10.1
 _ZN10Qt3DRender16QProximityFilter20setDistanceThresholdEf@Qt_5 5.10.1
 _ZN10Qt3DRender16QProximityFilter24distanceThresholdChangedEf@Qt_5 5.10.1
 _ZN10Qt3DRender16QProximityFilter9setEntityEPN8Qt3DCore7QEntityE@Qt_5 5.10.1
 _ZN10Qt3DRender16QProximityFilterC1EPN8Qt3DCore5QNodeE@Qt_5 5.10.1
 _ZN10Qt3DRender16QProximityFilterC1ERNS_23QProximityFilterPrivateEPN8Qt3DCore5QNodeE@Qt_5 5.10.1
 _ZN10Qt3DRender16QProximityFilterC2EPN8Qt3DCore5QNodeE@Qt_5 5.10.1
 _ZN10Qt3DRender16QProximityFilterC2ERNS_23QProximityFilterPrivateEPN8Qt3DCore5QNodeE@Qt_5 5.10.1
 _ZN10Qt3DRender16QProximityFilterD0Ev@Qt_5 5.10.1
 _ZN10Qt3DRender16QProximityFilterD1Ev@Qt_5 5.10.1
 _ZN10Qt3DRender16QProximityFilterD2Ev@Qt_5 5.10.1
 _ZN10Qt3DRender16QScreenRayCaster11qt_metacallEN11QMetaObject4CallEiPPv@Qt_5 5.11.1
 _ZN10Qt3DRender16QScreenRayCaster11qt_metacastEPKc@Qt_5 5.11.1
 _ZN10Qt3DRender16QScreenRayCaster11setPositionERK6QPoint@Qt_5 5.11.1
 _ZN10Qt3DRender16QScreenRayCaster15positionChangedERK6QPoint@Qt_5 5.11.1
 _ZN10Qt3DRender16QScreenRayCaster16staticMetaObjectE@Qt_5 5.11.1
 _ZN10Qt3DRender16QScreenRayCaster7triggerERK6QPoint@Qt_5 5.11.1
 _ZN10Qt3DRender16QScreenRayCaster7triggerEv@Qt_5 5.11.1
 _ZN10Qt3DRender16QScreenRayCasterC1EPN8Qt3DCore5QNodeE@Qt_5 5.11.1
 _ZN10Qt3DRender16QScreenRayCasterC2EPN8Qt3DCore5QNodeE@Qt_5 5.11.1
 _ZN10Qt3DRender16QScreenRayCasterD0Ev@Qt_5 5.11.1
 _ZN10Qt3DRender16QScreenRayCasterD1Ev@Qt_5 5.11.1
 _ZN10Qt3DRender16QScreenRayCasterD2Ev@Qt_5 5.11.1
 _ZN10Qt3DRender16QSeamlessCubemap11qt_metacallEN11QMetaObject4CallEiPPv@Qt_5 5.7.1~20161122
 _ZN10Qt3DRender16QSeamlessCubemap11qt_metacastEPKc@Qt_5 5.7.1~20161122
 _ZN10Qt3DRender16QSeamlessCubemap16staticMetaObjectE@Qt_5 5.7.1~20161122
 _ZN10Qt3DRender16QSeamlessCubemapC1EPN8Qt3DCore5QNodeE@Qt_5 5.7.1~20161122
 _ZN10Qt3DRender16QSeamlessCubemapC2EPN8Qt3DCore5QNodeE@Qt_5 5.7.1~20161122
 _ZN10Qt3DRender16QSeamlessCubemapD0Ev@Qt_5 5.7.1~20161122
 _ZN10Qt3DRender16QSeamlessCubemapD1Ev@Qt_5 5.7.1~20161122
 _ZN10Qt3DRender16QSeamlessCubemapD2Ev@Qt_5 5.7.1~20161122
 _ZN10Qt3DRender16QSharedGLTexture11qt_metacallEN11QMetaObject4CallEiPPv@Qt_5 5.14.2
 _ZN10Qt3DRender16QSharedGLTexture11qt_metacastEPKc@Qt_5 5.14.2
 _ZN10Qt3DRender16QSharedGLTexture12setTextureIdEi@Qt_5 5.14.2
 _ZN10Qt3DRender16QSharedGLTexture16staticMetaObjectE@Qt_5 5.14.2
 _ZN10Qt3DRender16QSharedGLTexture16textureIdChangedEi@Qt_5 5.14.2
 _ZN10Qt3DRender16QSharedGLTextureC1EPN8Qt3DCore5QNodeE@Qt_5 5.14.2
 _ZN10Qt3DRender16QSharedGLTextureC2EPN8Qt3DCore5QNodeE@Qt_5 5.14.2
 _ZN10Qt3DRender16QSharedGLTextureD0Ev@Qt_5 5.14.2
 _ZN10Qt3DRender16QSharedGLTextureD1Ev@Qt_5 5.14.2
 _ZN10Qt3DRender16QSharedGLTextureD2Ev@Qt_5 5.14.2
 _ZN10Qt3DRender16QTechniqueFilter11qt_metacallEN11QMetaObject4CallEiPPv@Qt_5 5.7.1~20161122
 _ZN10Qt3DRender16QTechniqueFilter11qt_metacastEPKc@Qt_5 5.7.1~20161122
 _ZN10Qt3DRender16QTechniqueFilter11removeMatchEPNS_10QFilterKeyE@Qt_5 5.7.1~20161122
 _ZN10Qt3DRender16QTechniqueFilter12addParameterEPNS_10QParameterE@Qt_5 5.7.1~20161122
 _ZN10Qt3DRender16QTechniqueFilter15removeParameterEPNS_10QParameterE@Qt_5 5.7.1~20161122
 _ZN10Qt3DRender16QTechniqueFilter16staticMetaObjectE@Qt_5 5.7.1~20161122
 _ZN10Qt3DRender16QTechniqueFilter8addMatchEPNS_10QFilterKeyE@Qt_5 5.7.1~20161122
 _ZN10Qt3DRender16QTechniqueFilterC1EPN8Qt3DCore5QNodeE@Qt_5 5.7.1~20161122
 _ZN10Qt3DRender16QTechniqueFilterC2EPN8Qt3DCore5QNodeE@Qt_5 5.7.1~20161122
 _ZN10Qt3DRender16QTechniqueFilterD0Ev@Qt_5 5.7.1~20161122
 _ZN10Qt3DRender16QTechniqueFilterD1Ev@Qt_5 5.7.1~20161122
 _ZN10Qt3DRender16QTechniqueFilterD2Ev@Qt_5 5.7.1~20161122
 _ZN10Qt3DRender16QTextureWrapMode11qt_metacallEN11QMetaObject4CallEiPPv@Qt_5 5.7.1~20161122
 _ZN10Qt3DRender16QTextureWrapMode11qt_metacastEPKc@Qt_5 5.7.1~20161122
 _ZN10Qt3DRender16QTextureWrapMode16staticMetaObjectE@Qt_5 5.7.1~20161122
 _ZN10Qt3DRender16QTextureWrapMode4setXENS0_8WrapModeE@Qt_5 5.7.1~20161122
 _ZN10Qt3DRender16QTextureWrapMode4setYENS0_8WrapModeE@Qt_5 5.7.1~20161122
 _ZN10Qt3DRender16QTextureWrapMode4setZENS0_8WrapModeE@Qt_5 5.7.1~20161122
 _ZN10Qt3DRender16QTextureWrapMode8xChangedENS0_8WrapModeE@Qt_5 5.7.1~20161122
 _ZN10Qt3DRender16QTextureWrapMode8yChangedENS0_8WrapModeE@Qt_5 5.7.1~20161122
 _ZN10Qt3DRender16QTextureWrapMode8zChangedENS0_8WrapModeE@Qt_5 5.7.1~20161122
 _ZN10Qt3DRender16QTextureWrapModeC1ENS0_8WrapModeEP7QObject@Qt_5 5.7.1~20161122
 _ZN10Qt3DRender16QTextureWrapModeC1ENS0_8WrapModeES1_S1_P7QObject@Qt_5 5.7.1~20161122
 _ZN10Qt3DRender16QTextureWrapModeC2ENS0_8WrapModeEP7QObject@Qt_5 5.7.1~20161122
 _ZN10Qt3DRender16QTextureWrapModeC2ENS0_8WrapModeES1_S1_P7QObject@Qt_5 5.7.1~20161122
 _ZN10Qt3DRender16QTextureWrapModeD0Ev@Qt_5 5.7.1~20161122
 _ZN10Qt3DRender16QTextureWrapModeD1Ev@Qt_5 5.7.1~20161122
 _ZN10Qt3DRender16QTextureWrapModeD2Ev@Qt_5 5.7.1~20161122
 _ZN10Qt3DRender17QDirectionalLight11qt_metacallEN11QMetaObject4CallEiPPv@Qt_5 5.7.1~20161122
 _ZN10Qt3DRender17QDirectionalLight11qt_metacastEPKc@Qt_5 5.7.1~20161122
 _ZN10Qt3DRender17QDirectionalLight16staticMetaObjectE@Qt_5 5.7.1~20161122
 _ZN10Qt3DRender17QDirectionalLight17setWorldDirectionERK9QVector3D@Qt_5 5.7.1~20161122
 _ZN10Qt3DRender17QDirectionalLight21worldDirectionChangedERK9QVector3D@Qt_5 5.7.1~20161122
 _ZN10Qt3DRender17QDirectionalLightC1EPN8Qt3DCore5QNodeE@Qt_5 5.7.1~20161122
 _ZN10Qt3DRender17QDirectionalLightC2EPN8Qt3DCore5QNodeE@Qt_5 5.7.1~20161122
 _ZN10Qt3DRender17QDirectionalLightD0Ev@Qt_5 5.7.1~20161122
 _ZN10Qt3DRender17QDirectionalLightD1Ev@Qt_5 5.7.1~20161122
 _ZN10Qt3DRender17QDirectionalLightD2Ev@Qt_5 5.7.1~20161122
 _ZN10Qt3DRender17QEnvironmentLight11qt_metacallEN11QMetaObject4CallEiPPv@Qt_5 5.9.0
 _ZN10Qt3DRender17QEnvironmentLight11qt_metacastEPKc@Qt_5 5.9.0
 _ZN10Qt3DRender17QEnvironmentLight11setSpecularEPNS_16QAbstractTextureE@Qt_5 5.9.0
 _ZN10Qt3DRender17QEnvironmentLight13setIrradianceEPNS_16QAbstractTextureE@Qt_5 5.9.0
 _ZN10Qt3DRender17QEnvironmentLight15specularChangedEPNS_16QAbstractTextureE@Qt_5 5.9.0
 _ZN10Qt3DRender17QEnvironmentLight16staticMetaObjectE@Qt_5 5.9.0
 _ZN10Qt3DRender17QEnvironmentLight17irradianceChangedEPNS_16QAbstractTextureE@Qt_5 5.9.0
 _ZN10Qt3DRender17QEnvironmentLightC1EPN8Qt3DCore5QNodeE@Qt_5 5.9.0
 _ZN10Qt3DRender17QEnvironmentLightC2EPN8Qt3DCore5QNodeE@Qt_5 5.9.0
 _ZN10Qt3DRender17QEnvironmentLightD0Ev@Qt_5 5.9.0
 _ZN10Qt3DRender17QEnvironmentLightD1Ev@Qt_5 5.9.0
 _ZN10Qt3DRender17QEnvironmentLightD2Ev@Qt_5 5.9.0
 _ZN10Qt3DRender17QGeometryRenderer11qt_metacallEN11QMetaObject4CallEiPPv@Qt_5 5.7.1~20161122
 _ZN10Qt3DRender17QGeometryRenderer11qt_metacastEPKc@Qt_5 5.7.1~20161122
 _ZN10Qt3DRender17QGeometryRenderer11setGeometryEPNS_9QGeometryE@Qt_5 5.7.1~20161122
 _ZN10Qt3DRender17QGeometryRenderer14setFirstVertexEi@Qt_5 5.7.1~20161122
 _ZN10Qt3DRender17QGeometryRenderer14setIndexOffsetEi@Qt_5 5.7.1~20161122
 _ZN10Qt3DRender17QGeometryRenderer14setVertexCountEi@Qt_5 5.7.1~20161122
 _ZN10Qt3DRender17QGeometryRenderer15geometryChangedEPNS_9QGeometryE@Qt_5 5.7.1~20161122
 _ZN10Qt3DRender17QGeometryRenderer16sceneChangeEventERK14QSharedPointerIN8Qt3DCore12QSceneChangeEE@Qt_5 5.7.1~20161122
 _ZN10Qt3DRender17QGeometryRenderer16setFirstInstanceEi@Qt_5 5.7.1~20161122
 _ZN10Qt3DRender17QGeometryRenderer16setInstanceCountEi@Qt_5 5.7.1~20161122
 _ZN10Qt3DRender17QGeometryRenderer16setPrimitiveTypeENS0_13PrimitiveTypeE@Qt_5 5.7.1~20161122
 _ZN10Qt3DRender17QGeometryRenderer16staticMetaObjectE@Qt_5 5.7.1~20161122
 _ZN10Qt3DRender17QGeometryRenderer18firstVertexChangedEi@Qt_5 5.7.1~20161122
 _ZN10Qt3DRender17QGeometryRenderer18indexOffsetChangedEi@Qt_5 5.7.1~20161122
 _ZN10Qt3DRender17QGeometryRenderer18setGeometryFactoryERK14QSharedPointerINS_16QGeometryFactoryEE@Qt_5 5.7.1~20161122
 _ZN10Qt3DRender17QGeometryRenderer18vertexCountChangedEi@Qt_5 5.7.1~20161122
 _ZN10Qt3DRender17QGeometryRenderer19setVerticesPerPatchEi@Qt_5 5.7.1~20161122
 _ZN10Qt3DRender17QGeometryRenderer20firstInstanceChangedEi@Qt_5 5.7.1~20161122
 _ZN10Qt3DRender17QGeometryRenderer20instanceCountChangedEi@Qt_5 5.7.1~20161122
 _ZN10Qt3DRender17QGeometryRenderer20primitiveTypeChangedENS0_13PrimitiveTypeE@Qt_5 5.7.1~20161122
 _ZN10Qt3DRender17QGeometryRenderer20setRestartIndexValueEi@Qt_5 5.7.1~20161122
 _ZN10Qt3DRender17QGeometryRenderer23verticesPerPatchChangedEi@Qt_5 5.7.1~20161122
 _ZN10Qt3DRender17QGeometryRenderer24restartIndexValueChangedEi@Qt_5 5.7.1~20161122
 _ZN10Qt3DRender17QGeometryRenderer24setIndexBufferByteOffsetEi@Qt_5 5.10.1
 _ZN10Qt3DRender17QGeometryRenderer26setPrimitiveRestartEnabledEb@Qt_5 5.7.1~20161122
 _ZN10Qt3DRender17QGeometryRenderer28indexBufferByteOffsetChangedEi@Qt_5 5.10.1
 _ZN10Qt3DRender17QGeometryRenderer30primitiveRestartEnabledChangedEb@Qt_5 5.7.1~20161122
 _ZN10Qt3DRender17QGeometryRendererC1EPN8Qt3DCore5QNodeE@Qt_5 5.7.1~20161122
 _ZN10Qt3DRender17QGeometryRendererC2EPN8Qt3DCore5QNodeE@Qt_5 5.7.1~20161122
 _ZN10Qt3DRender17QGeometryRendererD0Ev@Qt_5 5.7.1~20161122
 _ZN10Qt3DRender17QGeometryRendererD1Ev@Qt_5 5.7.1~20161122
 _ZN10Qt3DRender17QGeometryRendererD2Ev@Qt_5 5.7.1~20161122
 _ZN10Qt3DRender17QRenderPassFilter11qt_metacallEN11QMetaObject4CallEiPPv@Qt_5 5.7.1~20161122
 _ZN10Qt3DRender17QRenderPassFilter11qt_metacastEPKc@Qt_5 5.7.1~20161122
 _ZN10Qt3DRender17QRenderPassFilter11removeMatchEPNS_10QFilterKeyE@Qt_5 5.7.1~20161122
 _ZN10Qt3DRender17QRenderPassFilter12addParameterEPNS_10QParameterE@Qt_5 5.7.1~20161122
 _ZN10Qt3DRender17QRenderPassFilter15removeParameterEPNS_10QParameterE@Qt_5 5.7.1~20161122
 _ZN10Qt3DRender17QRenderPassFilter16staticMetaObjectE@Qt_5 5.7.1~20161122
 _ZN10Qt3DRender17QRenderPassFilter8addMatchEPNS_10QFilterKeyE@Qt_5 5.7.1~20161122
 _ZN10Qt3DRender17QRenderPassFilterC1EPN8Qt3DCore5QNodeE@Qt_5 5.7.1~20161122
 _ZN10Qt3DRender17QRenderPassFilterC1ERNS_24QRenderPassFilterPrivateEPN8Qt3DCore5QNodeE@Qt_5 5.7.1~20161122
 _ZN10Qt3DRender17QRenderPassFilterC2EPN8Qt3DCore5QNodeE@Qt_5 5.7.1~20161122
 _ZN10Qt3DRender17QRenderPassFilterC2ERNS_24QRenderPassFilterPrivateEPN8Qt3DCore5QNodeE@Qt_5 5.7.1~20161122
 _ZN10Qt3DRender17QRenderPassFilterD0Ev@Qt_5 5.7.1~20161122
 _ZN10Qt3DRender17QRenderPassFilterD1Ev@Qt_5 5.7.1~20161122
 _ZN10Qt3DRender17QRenderPassFilterD2Ev@Qt_5 5.7.1~20161122
 _ZN10Qt3DRender17QStencilOperation11qt_metacallEN11QMetaObject4CallEiPPv@Qt_5 5.7.1~20161122
 _ZN10Qt3DRender17QStencilOperation11qt_metacastEPKc@Qt_5 5.7.1~20161122
 _ZN10Qt3DRender17QStencilOperation16staticMetaObjectE@Qt_5 5.7.1~20161122
 _ZN10Qt3DRender17QStencilOperationC1EPN8Qt3DCore5QNodeE@Qt_5 5.7.1~20161122
 _ZN10Qt3DRender17QStencilOperationC2EPN8Qt3DCore5QNodeE@Qt_5 5.7.1~20161122
 _ZN10Qt3DRender17QStencilOperationD0Ev@Qt_5 5.7.1~20161122
 _ZN10Qt3DRender17QStencilOperationD1Ev@Qt_5 5.7.1~20161122
 _ZN10Qt3DRender17QStencilOperationD2Ev@Qt_5 5.7.1~20161122
 _ZN10Qt3DRender17QTextureGeneratorD0Ev@Qt_5 5.7.1~20161122
 _ZN10Qt3DRender17QTextureGeneratorD1Ev@Qt_5 5.7.1~20161122
 _ZN10Qt3DRender17QTextureGeneratorD2Ev@Qt_5 5.7.1~20161122
 _ZN10Qt3DRender17QTextureImageData12setMipLevelsEi@Qt_5 5.7.1~20161122
 _ZN10Qt3DRender17QTextureImageData12setPixelTypeEN14QOpenGLTexture9PixelTypeE@Qt_5 5.7.1~20161122
 _ZN10Qt3DRender17QTextureImageData14setPixelFormatEN14QOpenGLTexture11PixelFormatE@Qt_5 5.7.1~20161122
 _ZN10Qt3DRender17QTextureImageData7cleanupEv@Qt_5 5.7.1~20161122
 _ZN10Qt3DRender17QTextureImageData7setDataERK10QByteArrayib@Qt_5 5.7.1~20161122
 _ZN10Qt3DRender17QTextureImageData8setDepthEi@Qt_5 5.7.1~20161122
 _ZN10Qt3DRender17QTextureImageData8setFacesEi@Qt_5 5.7.1~20161122
 _ZN10Qt3DRender17QTextureImageData8setImageERK6QImage@Qt_5 5.7.1~20161122
 _ZN10Qt3DRender17QTextureImageData8setWidthEi@Qt_5 5.7.1~20161122
 _ZN10Qt3DRender17QTextureImageData9setFormatEN14QOpenGLTexture13TextureFormatE@Qt_5 5.7.1~20161122
 _ZN10Qt3DRender17QTextureImageData9setHeightEi@Qt_5 5.7.1~20161122
 _ZN10Qt3DRender17QTextureImageData9setLayersEi@Qt_5 5.7.1~20161122
 _ZN10Qt3DRender17QTextureImageData9setTargetEN14QOpenGLTexture6TargetE@Qt_5 5.7.1~20161122
 _ZN10Qt3DRender17QTextureImageDataC1Ev@Qt_5 5.7.1~20161122
 _ZN10Qt3DRender17QTextureImageDataC2Ev@Qt_5 5.7.1~20161122
 _ZN10Qt3DRender17QTextureImageDataD1Ev@Qt_5 5.7.1~20161122
 _ZN10Qt3DRender17QTextureImageDataD2Ev@Qt_5 5.7.1~20161122
 _ZN10Qt3DRender17QTextureImageDataaSERKS0_@Qt_5 5.7.1~20161122
 _ZN10Qt3DRender17QTextureRectangle11qt_metacallEN11QMetaObject4CallEiPPv@Qt_5 5.7.1~20161122
 _ZN10Qt3DRender17QTextureRectangle11qt_metacastEPKc@Qt_5 5.7.1~20161122
 _ZN10Qt3DRender17QTextureRectangle16staticMetaObjectE@Qt_5 5.7.1~20161122
 _ZN10Qt3DRender17QTextureRectangleC1EPN8Qt3DCore5QNodeE@Qt_5 5.7.1~20161122
 _ZN10Qt3DRender17QTextureRectangleC2EPN8Qt3DCore5QNodeE@Qt_5 5.7.1~20161122
 _ZN10Qt3DRender17QTextureRectangleD0Ev@Qt_5 5.7.1~20161122
 _ZN10Qt3DRender17QTextureRectangleD1Ev@Qt_5 5.7.1~20161122
 _ZN10Qt3DRender17QTextureRectangleD2Ev@Qt_5 5.7.1~20161122
 _ZN10Qt3DRender18QAbstractRayCaster10setRunModeENS0_7RunModeE@Qt_5 5.11.1
 _ZN10Qt3DRender18QAbstractRayCaster11hitsChangedERK7QVectorINS_13QRayCasterHitEE@Qt_5 5.11.1
 _ZN10Qt3DRender18QAbstractRayCaster11qt_metacallEN11QMetaObject4CallEiPPv@Qt_5 5.11.1
 _ZN10Qt3DRender18QAbstractRayCaster11qt_metacastEPKc@Qt_5 5.11.1
 _ZN10Qt3DRender18QAbstractRayCaster11removeLayerEPNS_6QLayerE@Qt_5 5.11.1
 _ZN10Qt3DRender18QAbstractRayCaster13setFilterModeENS0_10FilterModeE@Qt_5 5.11.1
 _ZN10Qt3DRender18QAbstractRayCaster14runModeChangedENS0_7RunModeE@Qt_5 5.11.1
 _ZN10Qt3DRender18QAbstractRayCaster16sceneChangeEventERK14QSharedPointerIN8Qt3DCore12QSceneChangeEE@Qt_5 5.11.1
 _ZN10Qt3DRender18QAbstractRayCaster16staticMetaObjectE@Qt_5 5.11.1
 _ZN10Qt3DRender18QAbstractRayCaster17filterModeChangedENS0_10FilterModeE@Qt_5 5.11.1
 _ZN10Qt3DRender18QAbstractRayCaster8addLayerEPNS_6QLayerE@Qt_5 5.11.1
 _ZN10Qt3DRender18QAbstractRayCasterC1EPN8Qt3DCore5QNodeE@Qt_5 5.11.1
 _ZN10Qt3DRender18QAbstractRayCasterC2EPN8Qt3DCore5QNodeE@Qt_5 5.11.1
 _ZN10Qt3DRender18QAbstractRayCasterD0Ev@Qt_5 5.11.1
 _ZN10Qt3DRender18QAbstractRayCasterD1Ev@Qt_5 5.11.1
 _ZN10Qt3DRender18QAbstractRayCasterD2Ev@Qt_5 5.11.1
 _ZN10Qt3DRender18QGraphicsApiFilter10apiChangedENS0_3ApiE@Qt_5 5.7.1~20161122
 _ZN10Qt3DRender18QGraphicsApiFilter10setProfileENS0_13OpenGLProfileE@Qt_5 5.7.1~20161122
 _ZN10Qt3DRender18QGraphicsApiFilter11qt_metacallEN11QMetaObject4CallEiPPv@Qt_5 5.7.1~20161122
 _ZN10Qt3DRender18QGraphicsApiFilter11qt_metacastEPKc@Qt_5 5.7.1~20161122
 _ZN10Qt3DRender18QGraphicsApiFilter13setExtensionsERK11QStringList@Qt_5 5.7.1~20161122
 _ZN10Qt3DRender18QGraphicsApiFilter13vendorChangedERK7QString@Qt_5 5.7.1~20161122
 _ZN10Qt3DRender18QGraphicsApiFilter14profileChangedENS0_13OpenGLProfileE@Qt_5 5.7.1~20161122
 _ZN10Qt3DRender18QGraphicsApiFilter15setMajorVersionEi@Qt_5 5.7.1~20161122
 _ZN10Qt3DRender18QGraphicsApiFilter15setMinorVersionEi@Qt_5 5.7.1~20161122
 _ZN10Qt3DRender18QGraphicsApiFilter16staticMetaObjectE@Qt_5 5.7.1~20161122
 _ZN10Qt3DRender18QGraphicsApiFilter17extensionsChangedERK11QStringList@Qt_5 5.7.1~20161122
 _ZN10Qt3DRender18QGraphicsApiFilter19majorVersionChangedEi@Qt_5 5.7.1~20161122
 _ZN10Qt3DRender18QGraphicsApiFilter19minorVersionChangedEi@Qt_5 5.7.1~20161122
 _ZN10Qt3DRender18QGraphicsApiFilter24graphicsApiFilterChangedEv@Qt_5 5.7.1~20161122
 _ZN10Qt3DRender18QGraphicsApiFilter6setApiENS0_3ApiE@Qt_5 5.7.1~20161122
 _ZN10Qt3DRender18QGraphicsApiFilter9setVendorERK7QString@Qt_5 5.7.1~20161122
 _ZN10Qt3DRender18QGraphicsApiFilterC1EP7QObject@Qt_5 5.7.1~20161122
 _ZN10Qt3DRender18QGraphicsApiFilterC2EP7QObject@Qt_5 5.7.1~20161122
 _ZN10Qt3DRender18QGraphicsApiFilterD0Ev@Qt_5 5.7.1~20161122
 _ZN10Qt3DRender18QGraphicsApiFilterD1Ev@Qt_5 5.7.1~20161122
 _ZN10Qt3DRender18QGraphicsApiFilterD2Ev@Qt_5 5.7.1~20161122
 _ZN10Qt3DRender18QPickTriangleEvent11qt_metacallEN11QMetaObject4CallEiPPv@Qt_5 5.7.1~20161122
 _ZN10Qt3DRender18QPickTriangleEvent11qt_metacastEPKc@Qt_5 5.7.1~20161122
 _ZN10Qt3DRender18QPickTriangleEvent16staticMetaObjectE@Qt_5 5.7.1~20161122
 _ZN10Qt3DRender18QPickTriangleEventC1ERK7QPointFRK9QVector3DS6_fjjjj@Qt_5 5.7.1~20161122
 _ZN10Qt3DRender18QPickTriangleEventC1ERK7QPointFRK9QVector3DS6_fjjjjNS_10QPickEvent7ButtonsEiiS6_@Qt_5 5.9.0
 _ZN10Qt3DRender18QPickTriangleEventC1Ev@Qt_5 5.7.1~20161122
 _ZN10Qt3DRender18QPickTriangleEventC2ERK7QPointFRK9QVector3DS6_fjjjj@Qt_5 5.7.1~20161122
 _ZN10Qt3DRender18QPickTriangleEventC2ERK7QPointFRK9QVector3DS6_fjjjjNS_10QPickEvent7ButtonsEiiS6_@Qt_5 5.9.0
 _ZN10Qt3DRender18QPickTriangleEventC2Ev@Qt_5 5.7.1~20161122
 _ZN10Qt3DRender18QPickTriangleEventD0Ev@Qt_5 5.7.1~20161122
 _ZN10Qt3DRender18QPickTriangleEventD1Ev@Qt_5 5.7.1~20161122
 _ZN10Qt3DRender18QPickTriangleEventD2Ev@Qt_5 5.7.1~20161122
 _ZN10Qt3DRender18QShaderGraphLoader13setPrototypesERK5QHashI7QStringNS_11QShaderNodeEE@Qt_5 5.15.1
 _ZN10Qt3DRender18QShaderGraphLoader4loadEv@Qt_5 5.15.1
 _ZN10Qt3DRender18QShaderGraphLoader9setDeviceEP9QIODevice@Qt_5 5.15.1
 _ZN10Qt3DRender18QShaderGraphLoaderC1Ev@Qt_5 5.15.1
 _ZN10Qt3DRender18QShaderGraphLoaderC2Ev@Qt_5 5.15.1
 _ZN10Qt3DRender18QShaderNodesLoader4loadERK11QJsonObject@Qt_5 5.15.1
 _ZN10Qt3DRender18QShaderNodesLoader4loadEv@Qt_5 5.15.1
 _ZN10Qt3DRender18QShaderNodesLoader9setDeviceEP9QIODevice@Qt_5 5.15.1
 _ZN10Qt3DRender18QShaderNodesLoaderC1Ev@Qt_5 5.15.1
 _ZN10Qt3DRender18QShaderNodesLoaderC2Ev@Qt_5 5.15.1
 _ZN10Qt3DRender18QTextureDataUpdate11setMipLevelEi@Qt_5 5.14.2
 _ZN10Qt3DRender18QTextureDataUpdate4setXEi@Qt_5 5.14.2
 _ZN10Qt3DRender18QTextureDataUpdate4setYEi@Qt_5 5.14.2
 _ZN10Qt3DRender18QTextureDataUpdate4setZEi@Qt_5 5.14.2
 _ZN10Qt3DRender18QTextureDataUpdate7setDataERK14QSharedPointerINS_17QTextureImageDataEE@Qt_5 5.14.2
 _ZN10Qt3DRender18QTextureDataUpdate7setFaceENS_16QAbstractTexture11CubeMapFaceE@Qt_5 5.14.2
 _ZN10Qt3DRender18QTextureDataUpdate8setLayerEi@Qt_5 5.14.2
 _ZN10Qt3DRender18QTextureDataUpdateC1ERKS0_@Qt_5 5.14.2
 _ZN10Qt3DRender18QTextureDataUpdateC1Ev@Qt_5 5.14.2
 _ZN10Qt3DRender18QTextureDataUpdateC2ERKS0_@Qt_5 5.14.2
 _ZN10Qt3DRender18QTextureDataUpdateC2Ev@Qt_5 5.14.2
 _ZN10Qt3DRender18QTextureDataUpdateD1Ev@Qt_5 5.14.2
 _ZN10Qt3DRender18QTextureDataUpdateD2Ev@Qt_5 5.14.2
 _ZN10Qt3DRender18QTextureDataUpdateaSERKS0_@Qt_5 5.14.2
 _ZN10Qt3DRender19QRenderCapabilities11qt_metacallEN11QMetaObject4CallEiPPv@Qt_5 5.15.1
 _ZN10Qt3DRender19QRenderCapabilities11qt_metacastEPKc@Qt_5 5.15.1
 _ZN10Qt3DRender19QRenderCapabilities16staticMetaObjectE@Qt_5 5.15.1
 _ZN10Qt3DRender19QRenderCapabilitiesC1EP7QObject@Qt_5 5.15.1
 _ZN10Qt3DRender19QRenderCapabilitiesC2EP7QObject@Qt_5 5.15.1
 _ZN10Qt3DRender19QRenderCapabilitiesD0Ev@Qt_5 5.15.1
 _ZN10Qt3DRender19QRenderCapabilitiesD1Ev@Qt_5 5.15.1
 _ZN10Qt3DRender19QRenderCapabilitiesD2Ev@Qt_5 5.15.1
 _ZN10Qt3DRender19QRenderCaptureReply11qt_metacallEN11QMetaObject4CallEiPPv@Qt_5 5.9.0
 _ZN10Qt3DRender19QRenderCaptureReply11qt_metacastEPKc@Qt_5 5.9.0
 _ZN10Qt3DRender19QRenderCaptureReply15completeChangedEb@Qt_5 5.9.0
 _ZN10Qt3DRender19QRenderCaptureReply16staticMetaObjectE@Qt_5 5.9.0
 _ZN10Qt3DRender19QRenderCaptureReply9completedEv@Qt_5 5.9.0
 _ZN10Qt3DRender19QRenderCaptureReplyC1EP7QObject@Qt_5 5.9.0
 _ZN10Qt3DRender19QRenderCaptureReplyC2EP7QObject@Qt_5 5.9.0
 _ZN10Qt3DRender19QRenderTargetOutput10setTextureEPNS_16QAbstractTextureE@Qt_5 5.7.1~20161122
 _ZN10Qt3DRender19QRenderTargetOutput11faceChangedENS_16QAbstractTexture11CubeMapFaceE@Qt_5 5.7.1~20161122
 _ZN10Qt3DRender19QRenderTargetOutput11qt_metacallEN11QMetaObject4CallEiPPv@Qt_5 5.7.1~20161122
 _ZN10Qt3DRender19QRenderTargetOutput11qt_metacastEPKc@Qt_5 5.7.1~20161122
 _ZN10Qt3DRender19QRenderTargetOutput11setMipLevelEi@Qt_5 5.7.1~20161122
 _ZN10Qt3DRender19QRenderTargetOutput12layerChangedEi@Qt_5 5.7.1~20161122
 _ZN10Qt3DRender19QRenderTargetOutput14textureChangedEPNS_16QAbstractTextureE@Qt_5 5.7.1~20161122
 _ZN10Qt3DRender19QRenderTargetOutput15mipLevelChangedEi@Qt_5 5.7.1~20161122
 _ZN10Qt3DRender19QRenderTargetOutput16staticMetaObjectE@Qt_5 5.7.1~20161122
 _ZN10Qt3DRender19QRenderTargetOutput18setAttachmentPointENS0_15AttachmentPointE@Qt_5 5.7.1~20161122
 _ZN10Qt3DRender19QRenderTargetOutput22attachmentPointChangedENS0_15AttachmentPointE@Qt_5 5.7.1~20161122
 _ZN10Qt3DRender19QRenderTargetOutput7setFaceENS_16QAbstractTexture11CubeMapFaceE@Qt_5 5.7.1~20161122
 _ZN10Qt3DRender19QRenderTargetOutput8setLayerEi@Qt_5 5.7.1~20161122
 _ZN10Qt3DRender19QRenderTargetOutputC1EPN8Qt3DCore5QNodeE@Qt_5 5.7.1~20161122
 _ZN10Qt3DRender19QRenderTargetOutputC2EPN8Qt3DCore5QNodeE@Qt_5 5.7.1~20161122
 _ZN10Qt3DRender19QRenderTargetOutputD0Ev@Qt_5 5.7.1~20161122
 _ZN10Qt3DRender19QRenderTargetOutputD1Ev@Qt_5 5.7.1~20161122
 _ZN10Qt3DRender19QRenderTargetOutputD2Ev@Qt_5 5.7.1~20161122
 _ZN10Qt3DRender20QLevelOfDetailSwitch11qt_metacallEN11QMetaObject4CallEiPPv@Qt_5 5.9.0
 _ZN10Qt3DRender20QLevelOfDetailSwitch11qt_metacastEPKc@Qt_5 5.9.0
 _ZN10Qt3DRender20QLevelOfDetailSwitch16sceneChangeEventERK14QSharedPointerIN8Qt3DCore12QSceneChangeEE@Qt_5 5.9.0
 _ZN10Qt3DRender20QLevelOfDetailSwitch16staticMetaObjectE@Qt_5 5.9.0
 _ZN10Qt3DRender20QLevelOfDetailSwitchC1EPN8Qt3DCore5QNodeE@Qt_5 5.9.0
 _ZN10Qt3DRender20QLevelOfDetailSwitchC2EPN8Qt3DCore5QNodeE@Qt_5 5.9.0
 _ZN10Qt3DRender20QLevelOfDetailSwitchD0Ev@Qt_5 5.9.0
 _ZN10Qt3DRender20QLevelOfDetailSwitchD1Ev@Qt_5 5.9.0
 _ZN10Qt3DRender20QLevelOfDetailSwitchD2Ev@Qt_5 5.9.0
 _ZN10Qt3DRender20QPaintedTextureImage11qt_metacallEN11QMetaObject4CallEiPPv@Qt_5 5.9.0
 _ZN10Qt3DRender20QPaintedTextureImage11qt_metacastEPKc@Qt_5 5.9.0
 _ZN10Qt3DRender20QPaintedTextureImage11sizeChangedE5QSize@Qt_5 5.9.0
 _ZN10Qt3DRender20QPaintedTextureImage12widthChangedEi@Qt_5 5.9.0
 _ZN10Qt3DRender20QPaintedTextureImage13heightChangedEi@Qt_5 5.9.0
 _ZN10Qt3DRender20QPaintedTextureImage16staticMetaObjectE@Qt_5 5.9.0
 _ZN10Qt3DRender20QPaintedTextureImage6updateERK5QRect@Qt_5 5.9.0
 _ZN10Qt3DRender20QPaintedTextureImage7setSizeE5QSize@Qt_5 5.9.0
 _ZN10Qt3DRender20QPaintedTextureImage8setWidthEi@Qt_5 5.9.0
 _ZN10Qt3DRender20QPaintedTextureImage9setHeightEi@Qt_5 5.9.0
 _ZN10Qt3DRender20QPaintedTextureImageC1EPN8Qt3DCore5QNodeE@Qt_5 5.9.0
 _ZN10Qt3DRender20QPaintedTextureImageC2EPN8Qt3DCore5QNodeE@Qt_5 5.9.0
 _ZN10Qt3DRender20QPaintedTextureImageD0Ev@Qt_5 5.9.0
 _ZN10Qt3DRender20QPaintedTextureImageD1Ev@Qt_5 5.9.0
 _ZN10Qt3DRender20QPaintedTextureImageD2Ev@Qt_5 5.9.0
 _ZN10Qt3DRender20QTextureCubeMapArray11qt_metacallEN11QMetaObject4CallEiPPv@Qt_5 5.7.1~20161122
 _ZN10Qt3DRender20QTextureCubeMapArray11qt_metacastEPKc@Qt_5 5.7.1~20161122
 _ZN10Qt3DRender20QTextureCubeMapArray16staticMetaObjectE@Qt_5 5.7.1~20161122
 _ZN10Qt3DRender20QTextureCubeMapArrayC1EPN8Qt3DCore5QNodeE@Qt_5 5.7.1~20161122
 _ZN10Qt3DRender20QTextureCubeMapArrayC2EPN8Qt3DCore5QNodeE@Qt_5 5.7.1~20161122
 _ZN10Qt3DRender20QTextureCubeMapArrayD0Ev@Qt_5 5.7.1~20161122
 _ZN10Qt3DRender20QTextureCubeMapArrayD1Ev@Qt_5 5.7.1~20161122
 _ZN10Qt3DRender20QTextureCubeMapArrayD2Ev@Qt_5 5.7.1~20161122
 (arch=!hurd-i386)_ZN10Qt3DRender20staticVulkanInstanceEv@Qt_5 5.15.2
 _ZN10Qt3DRender21QAbstractTextureImage11faceChangedENS_16QAbstractTexture11CubeMapFaceE@Qt_5 5.7.1~20161122
 _ZN10Qt3DRender21QAbstractTextureImage11qt_metacallEN11QMetaObject4CallEiPPv@Qt_5 5.7.1~20161122
 _ZN10Qt3DRender21QAbstractTextureImage11qt_metacastEPKc@Qt_5 5.7.1~20161122
 _ZN10Qt3DRender21QAbstractTextureImage11setMipLevelEi@Qt_5 5.7.1~20161122
 _ZN10Qt3DRender21QAbstractTextureImage12layerChangedEi@Qt_5 5.7.1~20161122
 _ZN10Qt3DRender21QAbstractTextureImage15mipLevelChangedEi@Qt_5 5.7.1~20161122
 _ZN10Qt3DRender21QAbstractTextureImage16staticMetaObjectE@Qt_5 5.7.1~20161122
 _ZN10Qt3DRender21QAbstractTextureImage26notifyDataGeneratorChangedEv@Qt_5 5.7.1~20161122
 _ZN10Qt3DRender21QAbstractTextureImage7setFaceENS_16QAbstractTexture11CubeMapFaceE@Qt_5 5.7.1~20161122
 _ZN10Qt3DRender21QAbstractTextureImage8setLayerEi@Qt_5 5.7.1~20161122
 _ZN10Qt3DRender21QAbstractTextureImageC1EPN8Qt3DCore5QNodeE@Qt_5 5.7.1~20161122
 _ZN10Qt3DRender21QAbstractTextureImageC2EPN8Qt3DCore5QNodeE@Qt_5 5.7.1~20161122
 _ZN10Qt3DRender21QAbstractTextureImageD0Ev@Qt_5 5.7.1~20161122
 _ZN10Qt3DRender21QAbstractTextureImageD1Ev@Qt_5 5.7.1~20161122
 _ZN10Qt3DRender21QAbstractTextureImageD2Ev@Qt_5 5.7.1~20161122
 _ZN10Qt3DRender21QRenderTargetSelector10setOutputsERK7QVectorINS_19QRenderTargetOutput15AttachmentPointEE@Qt_5 5.7.1~20161122
 _ZN10Qt3DRender21QRenderTargetSelector11qt_metacallEN11QMetaObject4CallEiPPv@Qt_5 5.7.1~20161122
 _ZN10Qt3DRender21QRenderTargetSelector11qt_metacastEPKc@Qt_5 5.7.1~20161122
 _ZN10Qt3DRender21QRenderTargetSelector13targetChangedEPNS_13QRenderTargetE@Qt_5 5.7.1~20161122
 _ZN10Qt3DRender21QRenderTargetSelector16staticMetaObjectE@Qt_5 5.7.1~20161122
 _ZN10Qt3DRender21QRenderTargetSelector9setTargetEPNS_13QRenderTargetE@Qt_5 5.7.1~20161122
 _ZN10Qt3DRender21QRenderTargetSelectorC1EPN8Qt3DCore5QNodeE@Qt_5 5.7.1~20161122
 _ZN10Qt3DRender21QRenderTargetSelectorC1ERNS_28QRenderTargetSelectorPrivateEPN8Qt3DCore5QNodeE@Qt_5 5.7.1~20161122
 _ZN10Qt3DRender21QRenderTargetSelectorC2EPN8Qt3DCore5QNodeE@Qt_5 5.7.1~20161122
 _ZN10Qt3DRender21QRenderTargetSelectorC2ERNS_28QRenderTargetSelectorPrivateEPN8Qt3DCore5QNodeE@Qt_5 5.7.1~20161122
 _ZN10Qt3DRender21QRenderTargetSelectorD0Ev@Qt_5 5.7.1~20161122
 _ZN10Qt3DRender21QRenderTargetSelectorD1Ev@Qt_5 5.7.1~20161122
 _ZN10Qt3DRender21QRenderTargetSelectorD2Ev@Qt_5 5.7.1~20161122
 _ZN10Qt3DRender21QShaderProgramBuilder11qt_metacallEN11QMetaObject4CallEiPPv@Qt_5 5.10.1
 _ZN10Qt3DRender21QShaderProgramBuilder11qt_metacastEPKc@Qt_5 5.10.1
 _ZN10Qt3DRender21QShaderProgramBuilder16sceneChangeEventERK14QSharedPointerIN8Qt3DCore12QSceneChangeEE@Qt_5 5.14.2
 _ZN10Qt3DRender21QShaderProgramBuilder16setEnabledLayersERK11QStringList@Qt_5 5.10.1
 _ZN10Qt3DRender21QShaderProgramBuilder16setShaderProgramEPNS_14QShaderProgramE@Qt_5 5.10.1
 _ZN10Qt3DRender21QShaderProgramBuilder16staticMetaObjectE@Qt_5 5.10.1
 _ZN10Qt3DRender21QShaderProgramBuilder20enabledLayersChangedERK11QStringList@Qt_5 5.10.1
 _ZN10Qt3DRender21QShaderProgramBuilder20setVertexShaderGraphERK4QUrl@Qt_5 5.10.1
 _ZN10Qt3DRender21QShaderProgramBuilder20shaderProgramChangedEPNS_14QShaderProgramE@Qt_5 5.10.1
 _ZN10Qt3DRender21QShaderProgramBuilder21setComputeShaderGraphERK4QUrl@Qt_5 5.10.1
 _ZN10Qt3DRender21QShaderProgramBuilder22setFragmentShaderGraphERK4QUrl@Qt_5 5.10.1
 _ZN10Qt3DRender21QShaderProgramBuilder22setGeometryShaderGraphERK4QUrl@Qt_5 5.10.1
 _ZN10Qt3DRender21QShaderProgramBuilder23vertexShaderCodeChangedERK10QByteArray@Qt_5 5.14.2
 _ZN10Qt3DRender21QShaderProgramBuilder24computeShaderCodeChangedERK10QByteArray@Qt_5 5.14.2
 _ZN10Qt3DRender21QShaderProgramBuilder24vertexShaderGraphChangedERK4QUrl@Qt_5 5.10.1
 _ZN10Qt3DRender21QShaderProgramBuilder25computeShaderGraphChangedERK4QUrl@Qt_5 5.10.1
 _ZN10Qt3DRender21QShaderProgramBuilder25fragmentShaderCodeChangedERK10QByteArray@Qt_5 5.14.2
 _ZN10Qt3DRender21QShaderProgramBuilder25geometryShaderCodeChangedERK10QByteArray@Qt_5 5.14.2
 _ZN10Qt3DRender21QShaderProgramBuilder26fragmentShaderGraphChangedERK4QUrl@Qt_5 5.10.1
 _ZN10Qt3DRender21QShaderProgramBuilder26geometryShaderGraphChangedERK4QUrl@Qt_5 5.10.1
 _ZN10Qt3DRender21QShaderProgramBuilder33setTessellationControlShaderGraphERK4QUrl@Qt_5 5.10.1
 _ZN10Qt3DRender21QShaderProgramBuilder36setTessellationEvaluationShaderGraphERK4QUrl@Qt_5 5.10.1
 _ZN10Qt3DRender21QShaderProgramBuilder36tessellationControlShaderCodeChangedERK10QByteArray@Qt_5 5.14.2
 _ZN10Qt3DRender21QShaderProgramBuilder37tessellationControlShaderGraphChangedERK4QUrl@Qt_5 5.10.1
 _ZN10Qt3DRender21QShaderProgramBuilder39tessellationEvaluationShaderCodeChangedERK10QByteArray@Qt_5 5.14.2
 _ZN10Qt3DRender21QShaderProgramBuilder40tessellationEvaluationShaderGraphChangedERK4QUrl@Qt_5 5.10.1
 _ZN10Qt3DRender21QShaderProgramBuilderC1EPN8Qt3DCore5QNodeE@Qt_5 5.10.1
 _ZN10Qt3DRender21QShaderProgramBuilderC2EPN8Qt3DCore5QNodeE@Qt_5 5.10.1
 _ZN10Qt3DRender21QShaderProgramBuilderD0Ev@Qt_5 5.10.1
 _ZN10Qt3DRender21QShaderProgramBuilderD1Ev@Qt_5 5.10.1
 _ZN10Qt3DRender21QShaderProgramBuilderD2Ev@Qt_5 5.10.1
 _ZN10Qt3DRender21QStencilTestArguments11qt_metacallEN11QMetaObject4CallEiPPv@Qt_5 5.7.1~20161122
 _ZN10Qt3DRender21QStencilTestArguments11qt_metacastEPKc@Qt_5 5.7.1~20161122
 _ZN10Qt3DRender21QStencilTestArguments15faceModeChangedENS0_15StencilFaceModeE@Qt_5 5.7.1~20161122
 _ZN10Qt3DRender21QStencilTestArguments16staticMetaObjectE@Qt_5 5.7.1~20161122
 _ZN10Qt3DRender21QStencilTestArguments17setComparisonMaskEj@Qt_5 5.7.1~20161122
 _ZN10Qt3DRender21QStencilTestArguments17setReferenceValueEi@Qt_5 5.7.1~20161122
 _ZN10Qt3DRender21QStencilTestArguments18setStencilFunctionENS0_15StencilFunctionE@Qt_5 5.7.1~20161122
 _ZN10Qt3DRender21QStencilTestArguments21comparisonMaskChangedEj@Qt_5 5.7.1~20161122
 _ZN10Qt3DRender21QStencilTestArguments21referenceValueChangedEi@Qt_5 5.7.1~20161122
 _ZN10Qt3DRender21QStencilTestArguments22stencilFunctionChangedENS0_15StencilFunctionE@Qt_5 5.7.1~20161122
 _ZN10Qt3DRender21QStencilTestArgumentsC1ENS0_15StencilFaceModeEP7QObject@Qt_5 5.7.1~20161122
 _ZN10Qt3DRender21QStencilTestArgumentsC2ENS0_15StencilFaceModeEP7QObject@Qt_5 5.7.1~20161122
 _ZN10Qt3DRender21QStencilTestArgumentsD0Ev@Qt_5 5.7.1~20161122
 _ZN10Qt3DRender21QStencilTestArgumentsD1Ev@Qt_5 5.7.1~20161122
 _ZN10Qt3DRender21QStencilTestArgumentsD2Ev@Qt_5 5.7.1~20161122
 _ZN10Qt3DRender21QTexture2DMultisample11qt_metacallEN11QMetaObject4CallEiPPv@Qt_5 5.7.1~20161122
 _ZN10Qt3DRender21QTexture2DMultisample11qt_metacastEPKc@Qt_5 5.7.1~20161122
 _ZN10Qt3DRender21QTexture2DMultisample16staticMetaObjectE@Qt_5 5.7.1~20161122
 _ZN10Qt3DRender21QTexture2DMultisampleC1EPN8Qt3DCore5QNodeE@Qt_5 5.7.1~20161122
 _ZN10Qt3DRender21QTexture2DMultisampleC2EPN8Qt3DCore5QNodeE@Qt_5 5.7.1~20161122
 _ZN10Qt3DRender21QTexture2DMultisampleD0Ev@Qt_5 5.7.1~20161122
 _ZN10Qt3DRender21QTexture2DMultisampleD1Ev@Qt_5 5.7.1~20161122
 _ZN10Qt3DRender21QTexture2DMultisampleD2Ev@Qt_5 5.7.1~20161122
 _ZN10Qt3DRender22QRenderSurfaceSelector10setSurfaceEP7QObject@Qt_5 5.7.1~20161122
 _ZN10Qt3DRender22QRenderSurfaceSelector11qt_metacallEN11QMetaObject4CallEiPPv@Qt_5 5.7.1~20161122
 _ZN10Qt3DRender22QRenderSurfaceSelector11qt_metacastEPKc@Qt_5 5.7.1~20161122
 _ZN10Qt3DRender22QRenderSurfaceSelector14surfaceChangedEP7QObject@Qt_5 5.7.1~20161122
 _ZN10Qt3DRender22QRenderSurfaceSelector16staticMetaObjectE@Qt_5 5.7.1~20161122
 _ZN10Qt3DRender22QRenderSurfaceSelector20setSurfacePixelRatioEf@Qt_5 5.7.1~20161122
 _ZN10Qt3DRender22QRenderSurfaceSelector24surfacePixelRatioChangedEf@Qt_5 5.7.1~20161122
 _ZN10Qt3DRender22QRenderSurfaceSelector27setExternalRenderTargetSizeERK5QSize@Qt_5 5.7.1~20161122
 _ZN10Qt3DRender22QRenderSurfaceSelector31externalRenderTargetSizeChangedERK5QSize@Qt_5 5.7.1~20161122
 _ZN10Qt3DRender22QRenderSurfaceSelectorC1EPN8Qt3DCore5QNodeE@Qt_5 5.7.1~20161122
 _ZN10Qt3DRender22QRenderSurfaceSelectorC2EPN8Qt3DCore5QNodeE@Qt_5 5.7.1~20161122
 _ZN10Qt3DRender22QRenderSurfaceSelectorD0Ev@Qt_5 5.7.1~20161122
 _ZN10Qt3DRender22QRenderSurfaceSelectorD1Ev@Qt_5 5.7.1~20161122
 _ZN10Qt3DRender22QRenderSurfaceSelectorD2Ev@Qt_5 5.7.1~20161122
 _ZN10Qt3DRender23PropertyReaderInterfaceD0Ev@Qt_5 5.7.1~20161122
 _ZN10Qt3DRender23PropertyReaderInterfaceD1Ev@Qt_5 5.7.1~20161122
 _ZN10Qt3DRender23PropertyReaderInterfaceD2Ev@Qt_5 5.7.1~20161122
 _ZN10Qt3DRender23QAxisAlignedBoundingBox6updateERK7QVectorI9QVector3DE@Qt_5 5.9.0
 _ZN10Qt3DRender23QBlendEquationArguments11qt_metacallEN11QMetaObject4CallEiPPv@Qt_5 5.7.1~20161122
 _ZN10Qt3DRender23QBlendEquationArguments11qt_metacastEPKc@Qt_5 5.7.1~20161122
 _ZN10Qt3DRender23QBlendEquationArguments12setSourceRgbENS0_8BlendingE@Qt_5 5.7.1~20161122
 _ZN10Qt3DRender23QBlendEquationArguments13setSourceRgbaENS0_8BlendingE@Qt_5 5.7.1~20161122
 _ZN10Qt3DRender23QBlendEquationArguments14setBufferIndexEi@Qt_5 5.7.1~20161122
 _ZN10Qt3DRender23QBlendEquationArguments14setSourceAlphaENS0_8BlendingE@Qt_5 5.7.1~20161122
 _ZN10Qt3DRender23QBlendEquationArguments16sourceRgbChangedENS0_8BlendingE@Qt_5 5.7.1~20161122
 _ZN10Qt3DRender23QBlendEquationArguments16staticMetaObjectE@Qt_5 5.7.1~20161122
 _ZN10Qt3DRender23QBlendEquationArguments17setDestinationRgbENS0_8BlendingE@Qt_5 5.7.1~20161122
 _ZN10Qt3DRender23QBlendEquationArguments17sourceRgbaChangedENS0_8BlendingE@Qt_5 5.7.1~20161122
 _ZN10Qt3DRender23QBlendEquationArguments18bufferIndexChangedEi@Qt_5 5.7.1~20161122
 _ZN10Qt3DRender23QBlendEquationArguments18setDestinationRgbaENS0_8BlendingE@Qt_5 5.7.1~20161122
 _ZN10Qt3DRender23QBlendEquationArguments18sourceAlphaChangedENS0_8BlendingE@Qt_5 5.7.1~20161122
 _ZN10Qt3DRender23QBlendEquationArguments19setDestinationAlphaENS0_8BlendingE@Qt_5 5.7.1~20161122
 _ZN10Qt3DRender23QBlendEquationArguments21destinationRgbChangedENS0_8BlendingE@Qt_5 5.7.1~20161122
 _ZN10Qt3DRender23QBlendEquationArguments22destinationRgbaChangedENS0_8BlendingE@Qt_5 5.7.1~20161122
 _ZN10Qt3DRender23QBlendEquationArguments23destinationAlphaChangedENS0_8BlendingE@Qt_5 5.7.1~20161122
 _ZN10Qt3DRender23QBlendEquationArgumentsC1EPN8Qt3DCore5QNodeE@Qt_5 5.7.1~20161122
 _ZN10Qt3DRender23QBlendEquationArgumentsC2EPN8Qt3DCore5QNodeE@Qt_5 5.7.1~20161122
 _ZN10Qt3DRender23QBlendEquationArgumentsD0Ev@Qt_5 5.7.1~20161122
 _ZN10Qt3DRender23QBlendEquationArgumentsD1Ev@Qt_5 5.7.1~20161122
 _ZN10Qt3DRender23QBlendEquationArgumentsD2Ev@Qt_5 5.7.1~20161122
 _ZN10Qt3DRender24QMultiSampleAntiAliasing11qt_metacallEN11QMetaObject4CallEiPPv@Qt_5 5.7.1~20161122
 _ZN10Qt3DRender24QMultiSampleAntiAliasing11qt_metacastEPKc@Qt_5 5.7.1~20161122
 _ZN10Qt3DRender24QMultiSampleAntiAliasing16staticMetaObjectE@Qt_5 5.7.1~20161122
 _ZN10Qt3DRender24QMultiSampleAntiAliasingC1EPN8Qt3DCore5QNodeE@Qt_5 5.7.1~20161122
 _ZN10Qt3DRender24QMultiSampleAntiAliasingC2EPN8Qt3DCore5QNodeE@Qt_5 5.7.1~20161122
 _ZN10Qt3DRender24QMultiSampleAntiAliasingD0Ev@Qt_5 5.7.1~20161122
 _ZN10Qt3DRender24QMultiSampleAntiAliasingD1Ev@Qt_5 5.7.1~20161122
 _ZN10Qt3DRender24QMultiSampleAntiAliasingD2Ev@Qt_5 5.7.1~20161122
 _ZN10Qt3DRender26QStencilOperationArguments11qt_metacallEN11QMetaObject4CallEiPPv@Qt_5 5.7.1~20161122
 _ZN10Qt3DRender26QStencilOperationArguments11qt_metacastEPKc@Qt_5 5.7.1~20161122
 _ZN10Qt3DRender26QStencilOperationArguments15faceModeChangedENS0_8FaceModeE@Qt_5 5.7.1~20161122
 _ZN10Qt3DRender26QStencilOperationArguments16staticMetaObjectE@Qt_5 5.7.1~20161122
 _ZN10Qt3DRender26QStencilOperationArguments24setAllTestsPassOperationENS0_9OperationE@Qt_5 5.7.1~20161122
 _ZN10Qt3DRender26QStencilOperationArguments28allTestsPassOperationChangedENS0_9OperationE@Qt_5 5.7.1~20161122
 _ZN10Qt3DRender26QStencilOperationArguments28setDepthTestFailureOperationENS0_9OperationE@Qt_5 5.7.1~20161122
 _ZN10Qt3DRender26QStencilOperationArguments30setStencilTestFailureOperationENS0_9OperationE@Qt_5 5.7.1~20161122
 _ZN10Qt3DRender26QStencilOperationArguments32depthTestFailureOperationChangedENS0_9OperationE@Qt_5 5.7.1~20161122
 _ZN10Qt3DRender26QStencilOperationArguments34stencilTestFailureOperationChangedENS0_9OperationE@Qt_5 5.7.1~20161122
 _ZN10Qt3DRender26QStencilOperationArgumentsC1ENS0_8FaceModeEP7QObject@Qt_5 5.7.1~20161122
 _ZN10Qt3DRender26QStencilOperationArgumentsC2ENS0_8FaceModeEP7QObject@Qt_5 5.7.1~20161122
 _ZN10Qt3DRender26QStencilOperationArgumentsD0Ev@Qt_5 5.7.1~20161122
 _ZN10Qt3DRender26QStencilOperationArgumentsD1Ev@Qt_5 5.7.1~20161122
 _ZN10Qt3DRender26QStencilOperationArgumentsD2Ev@Qt_5 5.7.1~20161122
 _ZN10Qt3DRender26QTexture2DMultisampleArray11qt_metacallEN11QMetaObject4CallEiPPv@Qt_5 5.7.1~20161122
 _ZN10Qt3DRender26QTexture2DMultisampleArray11qt_metacastEPKc@Qt_5 5.7.1~20161122
 _ZN10Qt3DRender26QTexture2DMultisampleArray16staticMetaObjectE@Qt_5 5.7.1~20161122
 _ZN10Qt3DRender26QTexture2DMultisampleArrayC1EPN8Qt3DCore5QNodeE@Qt_5 5.7.1~20161122
 _ZN10Qt3DRender26QTexture2DMultisampleArrayC2EPN8Qt3DCore5QNodeE@Qt_5 5.7.1~20161122
 _ZN10Qt3DRender26QTexture2DMultisampleArrayD0Ev@Qt_5 5.7.1~20161122
 _ZN10Qt3DRender26QTexture2DMultisampleArrayD1Ev@Qt_5 5.7.1~20161122
 _ZN10Qt3DRender26QTexture2DMultisampleArrayD2Ev@Qt_5 5.7.1~20161122
 _ZN10Qt3DRender28QLevelOfDetailBoundingSphere16staticMetaObjectE@Qt_5 5.9.0
 _ZN10Qt3DRender28QLevelOfDetailBoundingSphereC1E9QVector3Df@Qt_5 5.9.0
 _ZN10Qt3DRender28QLevelOfDetailBoundingSphereC1ERKS0_@Qt_5 5.9.0
 _ZN10Qt3DRender28QLevelOfDetailBoundingSphereC2E9QVector3Df@Qt_5 5.9.0
 _ZN10Qt3DRender28QLevelOfDetailBoundingSphereC2ERKS0_@Qt_5 5.9.0
 _ZN10Qt3DRender28QLevelOfDetailBoundingSphereD1Ev@Qt_5 5.9.0
 _ZN10Qt3DRender28QLevelOfDetailBoundingSphereD2Ev@Qt_5 5.9.0
 _ZN10Qt3DRender28QLevelOfDetailBoundingSphereaSERKS0_@Qt_5 5.9.0
 _ZN10Qt3DRender32QFrameGraphNodeCreatedChangeBaseC1EPKNS_15QFrameGraphNodeE@Qt_5 5.9.0
 _ZN10Qt3DRender32QFrameGraphNodeCreatedChangeBaseC2EPKNS_15QFrameGraphNodeE@Qt_5 5.9.0
 _ZN10Qt3DRender32QFrameGraphNodeCreatedChangeBaseD0Ev@Qt_5 5.9.0
 _ZN10Qt3DRender32QFrameGraphNodeCreatedChangeBaseD1Ev@Qt_5 5.9.0
 _ZN10Qt3DRender32QFrameGraphNodeCreatedChangeBaseD2Ev@Qt_5 5.9.0
 _ZN10Qt3DRender5QMesh11qt_metacallEN11QMetaObject4CallEiPPv@Qt_5 5.7.1~20161122
 _ZN10Qt3DRender5QMesh11qt_metacastEPKc@Qt_5 5.7.1~20161122
 _ZN10Qt3DRender5QMesh11setMeshNameERK7QString@Qt_5 5.7.1~20161122
 _ZN10Qt3DRender5QMesh13sourceChangedERK4QUrl@Qt_5 5.7.1~20161122
 _ZN10Qt3DRender5QMesh13statusChangedENS0_6StatusE@Qt_5 5.11.1
 _ZN10Qt3DRender5QMesh15meshNameChangedERK7QString@Qt_5 5.7.1~20161122
 _ZN10Qt3DRender5QMesh16sceneChangeEventERK14QSharedPointerIN8Qt3DCore12QSceneChangeEE@Qt_5 5.11.1
 _ZN10Qt3DRender5QMesh16staticMetaObjectE@Qt_5 5.7.1~20161122
 _ZN10Qt3DRender5QMesh9setSourceERK4QUrl@Qt_5 5.7.1~20161122
 _ZN10Qt3DRender5QMeshC1EPN8Qt3DCore5QNodeE@Qt_5 5.7.1~20161122
 _ZN10Qt3DRender5QMeshC2EPN8Qt3DCore5QNodeE@Qt_5 5.7.1~20161122
 _ZN10Qt3DRender5QMeshD0Ev@Qt_5 5.7.1~20161122
 _ZN10Qt3DRender5QMeshD1Ev@Qt_5 5.7.1~20161122
 _ZN10Qt3DRender5QMeshD2Ev@Qt_5 5.7.1~20161122
 _ZN10Qt3DRender6QLayer11qt_metacallEN11QMetaObject4CallEiPPv@Qt_5 5.7.1~20161122
 _ZN10Qt3DRender6QLayer11qt_metacastEPKc@Qt_5 5.7.1~20161122
 _ZN10Qt3DRender6QLayer12setRecursiveEb@Qt_5 5.10.1
 _ZN10Qt3DRender6QLayer16recursiveChangedEv@Qt_5 5.10.1
 _ZN10Qt3DRender6QLayer16staticMetaObjectE@Qt_5 5.7.1~20161122
 _ZN10Qt3DRender6QLayerC1EPN8Qt3DCore5QNodeE@Qt_5 5.7.1~20161122
 _ZN10Qt3DRender6QLayerC2EPN8Qt3DCore5QNodeE@Qt_5 5.7.1~20161122
 _ZN10Qt3DRender6QLayerD0Ev@Qt_5 5.7.1~20161122
 _ZN10Qt3DRender6QLayerD1Ev@Qt_5 5.7.1~20161122
 _ZN10Qt3DRender6QLayerD2Ev@Qt_5 5.7.1~20161122
 _ZN10Qt3DRender6Render30UpdateWorldTransformJobPrivate9postFrameEPN8Qt3DCore14QAspectManagerE@Qt_5 5.14.2
 _ZN10Qt3DRender7QBuffer10updateDataEiRK10QByteArray@Qt_5 5.9.0
 _ZN10Qt3DRender7QBuffer11dataChangedERK10QByteArray@Qt_5 5.7.1~20161122
 _ZN10Qt3DRender7QBuffer11qt_metacallEN11QMetaObject4CallEiPPv@Qt_5 5.7.1~20161122
 _ZN10Qt3DRender7QBuffer11qt_metacastEPKc@Qt_5 5.7.1~20161122
 _ZN10Qt3DRender7QBuffer11setSyncDataEb@Qt_5 5.7.1~20161122
 _ZN10Qt3DRender7QBuffer11typeChangedENS0_10BufferTypeE@Qt_5 5.7.1~20161122
 _ZN10Qt3DRender7QBuffer12usageChangedENS0_9UsageTypeE@Qt_5 5.7.1~20161122
 _ZN10Qt3DRender7QBuffer13dataAvailableEv@Qt_5 5.9.0
 _ZN10Qt3DRender7QBuffer13setAccessTypeENS0_10AccessTypeE@Qt_5 5.9.0
 _ZN10Qt3DRender7QBuffer15syncDataChangedEb@Qt_5 5.7.1~20161122
 _ZN10Qt3DRender7QBuffer16sceneChangeEventERK14QSharedPointerIN8Qt3DCore12QSceneChangeEE@Qt_5 5.7.1~20161122
 _ZN10Qt3DRender7QBuffer16setDataGeneratorERK14QSharedPointerINS_20QBufferDataGeneratorEE@Qt_5 5.7.1~20161122
 _ZN10Qt3DRender7QBuffer16staticMetaObjectE@Qt_5 5.7.1~20161122
 _ZN10Qt3DRender7QBuffer17accessTypeChangedENS0_10AccessTypeE@Qt_5 5.9.0
 _ZN10Qt3DRender7QBuffer7setDataERK10QByteArray@Qt_5 5.7.1~20161122
 _ZN10Qt3DRender7QBuffer7setTypeENS0_10BufferTypeE@Qt_5 5.7.1~20161122
 _ZN10Qt3DRender7QBuffer8setUsageENS0_9UsageTypeE@Qt_5 5.7.1~20161122
 _ZN10Qt3DRender7QBufferC1ENS0_10BufferTypeEPN8Qt3DCore5QNodeE@Qt_5 5.7.1~20161122
 _ZN10Qt3DRender7QBufferC1EPN8Qt3DCore5QNodeE@Qt_5 5.10.1
 _ZN10Qt3DRender7QBufferC2ENS0_10BufferTypeEPN8Qt3DCore5QNodeE@Qt_5 5.7.1~20161122
 _ZN10Qt3DRender7QBufferC2EPN8Qt3DCore5QNodeE@Qt_5 5.10.1
 _ZN10Qt3DRender7QBufferD0Ev@Qt_5 5.7.1~20161122
 _ZN10Qt3DRender7QBufferD1Ev@Qt_5 5.7.1~20161122
 _ZN10Qt3DRender7QBufferD2Ev@Qt_5 5.7.1~20161122
 _ZN10Qt3DRender7QCamera10topChangedEf@Qt_5 5.7.1~20161122
 _ZN10Qt3DRender7QCamera10viewEntityEPN8Qt3DCore7QEntityE@Qt_5 5.10.1
 _ZN10Qt3DRender7QCamera10viewSphereERK9QVector3Df@Qt_5 5.10.1
 _ZN10Qt3DRender7QCamera11leftChangedEf@Qt_5 5.7.1~20161122
 _ZN10Qt3DRender7QCamera11qt_metacallEN11QMetaObject4CallEiPPv@Qt_5 5.7.1~20161122
 _ZN10Qt3DRender7QCamera11qt_metacastEPKc@Qt_5 5.7.1~20161122
 _ZN10Qt3DRender7QCamera11setExposureEf@Qt_5 5.9.0
 _ZN10Qt3DRender7QCamera11setFarPlaneEf@Qt_5 5.7.1~20161122
 _ZN10Qt3DRender7QCamera11setPositionERK9QVector3D@Qt_5 5.7.1~20161122
 _ZN10Qt3DRender7QCamera11setUpVectorERK9QVector3D@Qt_5 5.7.1~20161122
 _ZN10Qt3DRender7QCamera12rightChangedEf@Qt_5 5.7.1~20161122
 _ZN10Qt3DRender7QCamera12setNearPlaneEf@Qt_5 5.7.1~20161122
 _ZN10Qt3DRender7QCamera13bottomChangedEf@Qt_5 5.7.1~20161122
 _ZN10Qt3DRender7QCamera13setViewCenterERK9QVector3D@Qt_5 5.7.1~20161122
 _ZN10Qt3DRender7QCamera14setAspectRatioEf@Qt_5 5.7.1~20161122
 _ZN10Qt3DRender7QCamera14setFieldOfViewEf@Qt_5 5.7.1~20161122
 _ZN10Qt3DRender7QCamera14translateWorldERK9QVector3DNS0_23CameraTranslationOptionE@Qt_5 5.7.1~20161122
 _ZN10Qt3DRender7QCamera15exposureChangedEf@Qt_5 5.9.0
 _ZN10Qt3DRender7QCamera15farPlaneChangedEf@Qt_5 5.7.1~20161122
 _ZN10Qt3DRender7QCamera15positionChangedERK9QVector3D@Qt_5 5.7.1~20161122
 _ZN10Qt3DRender7QCamera15upVectorChangedERK9QVector3D@Qt_5 5.7.1~20161122
 _ZN10Qt3DRender7QCamera16nearPlaneChangedEf@Qt_5 5.7.1~20161122
 _ZN10Qt3DRender7QCamera16staticMetaObjectE@Qt_5 5.7.1~20161122
 _ZN10Qt3DRender7QCamera17setProjectionTypeENS_11QCameraLens14ProjectionTypeE@Qt_5 5.7.1~20161122
 _ZN10Qt3DRender7QCamera17viewCenterChangedERK9QVector3D@Qt_5 5.7.1~20161122
 _ZN10Qt3DRender7QCamera17viewMatrixChangedEv@Qt_5 5.7.1~20161122
 _ZN10Qt3DRender7QCamera17viewVectorChangedERK9QVector3D@Qt_5 5.7.1~20161122
 _ZN10Qt3DRender7QCamera18aspectRatioChangedEf@Qt_5 5.7.1~20161122
 _ZN10Qt3DRender7QCamera18fieldOfViewChangedEf@Qt_5 5.7.1~20161122
 _ZN10Qt3DRender7QCamera18panAboutViewCenterEf@Qt_5 5.7.1~20161122
 _ZN10Qt3DRender7QCamera18panAboutViewCenterEfRK9QVector3D@Qt_5 5.7.1~20161122
 _ZN10Qt3DRender7QCamera19rollAboutViewCenterEf@Qt_5 5.7.1~20161122
 _ZN10Qt3DRender7QCamera19setProjectionMatrixERK10QMatrix4x4@Qt_5 5.7.1~20161122
 _ZN10Qt3DRender7QCamera19tiltAboutViewCenterEf@Qt_5 5.7.1~20161122
 _ZN10Qt3DRender7QCamera21projectionTypeChangedENS_11QCameraLens14ProjectionTypeE@Qt_5 5.7.1~20161122
 _ZN10Qt3DRender7QCamera21rotateAboutViewCenterERK11QQuaternion@Qt_5 5.7.1~20161122
 _ZN10Qt3DRender7QCamera23projectionMatrixChangedERK10QMatrix4x4@Qt_5 5.7.1~20161122
 _ZN10Qt3DRender7QCamera3panEf@Qt_5 5.7.1~20161122
 _ZN10Qt3DRender7QCamera3panEfRK9QVector3D@Qt_5 5.7.1~20161122
 _ZN10Qt3DRender7QCamera4rollEf@Qt_5 5.7.1~20161122
 _ZN10Qt3DRender7QCamera4tiltEf@Qt_5 5.7.1~20161122
 _ZN10Qt3DRender7QCamera6rotateERK11QQuaternion@Qt_5 5.7.1~20161122
 _ZN10Qt3DRender7QCamera6setTopEf@Qt_5 5.7.1~20161122
 _ZN10Qt3DRender7QCamera7setLeftEf@Qt_5 5.7.1~20161122
 _ZN10Qt3DRender7QCamera7viewAllEv@Qt_5 5.10.1
 _ZN10Qt3DRender7QCamera8setRightEf@Qt_5 5.7.1~20161122
 _ZN10Qt3DRender7QCamera9setBottomEf@Qt_5 5.7.1~20161122
 _ZN10Qt3DRender7QCamera9translateERK9QVector3DNS0_23CameraTranslationOptionE@Qt_5 5.7.1~20161122
 _ZN10Qt3DRender7QCameraC1EPN8Qt3DCore5QNodeE@Qt_5 5.7.1~20161122
 _ZN10Qt3DRender7QCameraC2EPN8Qt3DCore5QNodeE@Qt_5 5.7.1~20161122
 _ZN10Qt3DRender7QCameraD0Ev@Qt_5 5.7.1~20161122
 _ZN10Qt3DRender7QCameraD1Ev@Qt_5 5.7.1~20161122
 _ZN10Qt3DRender7QCameraD2Ev@Qt_5 5.7.1~20161122
 _ZN10Qt3DRender7QEffect11qt_metacallEN11QMetaObject4CallEiPPv@Qt_5 5.7.1~20161122
 _ZN10Qt3DRender7QEffect11qt_metacastEPKc@Qt_5 5.7.1~20161122
 _ZN10Qt3DRender7QEffect12addParameterEPNS_10QParameterE@Qt_5 5.7.1~20161122
 _ZN10Qt3DRender7QEffect12addTechniqueEPNS_10QTechniqueE@Qt_5 5.7.1~20161122
 _ZN10Qt3DRender7QEffect15removeParameterEPNS_10QParameterE@Qt_5 5.7.1~20161122
 _ZN10Qt3DRender7QEffect15removeTechniqueEPNS_10QTechniqueE@Qt_5 5.7.1~20161122
 _ZN10Qt3DRender7QEffect16staticMetaObjectE@Qt_5 5.7.1~20161122
 _ZN10Qt3DRender7QEffectC1EPN8Qt3DCore5QNodeE@Qt_5 5.7.1~20161122
 _ZN10Qt3DRender7QEffectC2EPN8Qt3DCore5QNodeE@Qt_5 5.7.1~20161122
 _ZN10Qt3DRender7QEffectD0Ev@Qt_5 5.7.1~20161122
 _ZN10Qt3DRender7QEffectD1Ev@Qt_5 5.7.1~20161122
 _ZN10Qt3DRender7QEffectD2Ev@Qt_5 5.7.1~20161122
 _ZN10Qt3DRender7QNoDraw11qt_metacallEN11QMetaObject4CallEiPPv@Qt_5 5.7.1~20161122
 _ZN10Qt3DRender7QNoDraw11qt_metacastEPKc@Qt_5 5.7.1~20161122
 _ZN10Qt3DRender7QNoDraw16staticMetaObjectE@Qt_5 5.7.1~20161122
 _ZN10Qt3DRender7QNoDrawC1EPN8Qt3DCore5QNodeE@Qt_5 5.7.1~20161122
 _ZN10Qt3DRender7QNoDrawC2EPN8Qt3DCore5QNodeE@Qt_5 5.7.1~20161122
 _ZN10Qt3DRender7QNoDrawD0Ev@Qt_5 5.7.1~20161122
 _ZN10Qt3DRender7QNoDrawD1Ev@Qt_5 5.7.1~20161122
 _ZN10Qt3DRender7QNoDrawD2Ev@Qt_5 5.7.1~20161122
 _ZN10Qt3DRender9QCullFace11modeChangedENS0_11CullingModeE@Qt_5 5.7.1~20161122
 _ZN10Qt3DRender9QCullFace11qt_metacallEN11QMetaObject4CallEiPPv@Qt_5 5.7.1~20161122
 _ZN10Qt3DRender9QCullFace11qt_metacastEPKc@Qt_5 5.7.1~20161122
 _ZN10Qt3DRender9QCullFace16staticMetaObjectE@Qt_5 5.7.1~20161122
 _ZN10Qt3DRender9QCullFace7setModeENS0_11CullingModeE@Qt_5 5.7.1~20161122
 _ZN10Qt3DRender9QCullFaceC1EPN8Qt3DCore5QNodeE@Qt_5 5.7.1~20161122
 _ZN10Qt3DRender9QCullFaceC2EPN8Qt3DCore5QNodeE@Qt_5 5.7.1~20161122
 _ZN10Qt3DRender9QCullFaceD0Ev@Qt_5 5.7.1~20161122
 _ZN10Qt3DRender9QCullFaceD1Ev@Qt_5 5.7.1~20161122
 _ZN10Qt3DRender9QCullFaceD2Ev@Qt_5 5.7.1~20161122
 _ZN10Qt3DRender9QGeometry11qt_metacallEN11QMetaObject4CallEiPPv@Qt_5 5.7.1~20161122
 _ZN10Qt3DRender9QGeometry11qt_metacastEPKc@Qt_5 5.7.1~20161122
 _ZN10Qt3DRender9QGeometry12addAttributeEPNS_10QAttributeE@Qt_5 5.7.1~20161122
 _ZN10Qt3DRender9QGeometry15removeAttributeEPNS_10QAttributeE@Qt_5 5.7.1~20161122
 _ZN10Qt3DRender9QGeometry16maxExtentChangedERK9QVector3D@Qt_5 5.14.2
 _ZN10Qt3DRender9QGeometry16minExtentChangedERK9QVector3D@Qt_5 5.14.2
 _ZN10Qt3DRender9QGeometry16sceneChangeEventERK14QSharedPointerIN8Qt3DCore12QSceneChangeEE@Qt_5 5.14.2
 _ZN10Qt3DRender9QGeometry16staticMetaObjectE@Qt_5 5.7.1~20161122
 _ZN10Qt3DRender9QGeometry34setBoundingVolumePositionAttributeEPNS_10QAttributeE@Qt_5 5.7.1~20161122
 _ZN10Qt3DRender9QGeometry38boundingVolumePositionAttributeChangedEPNS_10QAttributeE@Qt_5 5.7.1~20161122
 _ZN10Qt3DRender9QGeometryC1EPN8Qt3DCore5QNodeE@Qt_5 5.7.1~20161122
 _ZN10Qt3DRender9QGeometryC2EPN8Qt3DCore5QNodeE@Qt_5 5.7.1~20161122
 _ZN10Qt3DRender9QGeometryD0Ev@Qt_5 5.7.1~20161122
 _ZN10Qt3DRender9QGeometryD1Ev@Qt_5 5.7.1~20161122
 _ZN10Qt3DRender9QGeometryD2Ev@Qt_5 5.7.1~20161122
 _ZN10Qt3DRender9QMaterial11qt_metacallEN11QMetaObject4CallEiPPv@Qt_5 5.7.1~20161122
 _ZN10Qt3DRender9QMaterial11qt_metacastEPKc@Qt_5 5.7.1~20161122
 _ZN10Qt3DRender9QMaterial12addParameterEPNS_10QParameterE@Qt_5 5.7.1~20161122
 _ZN10Qt3DRender9QMaterial13effectChangedEPNS_7QEffectE@Qt_5 5.7.1~20161122
 _ZN10Qt3DRender9QMaterial15removeParameterEPNS_10QParameterE@Qt_5 5.7.1~20161122
 _ZN10Qt3DRender9QMaterial16staticMetaObjectE@Qt_5 5.7.1~20161122
 _ZN10Qt3DRender9QMaterial9setEffectEPNS_7QEffectE@Qt_5 5.7.1~20161122
 _ZN10Qt3DRender9QMaterialC1EPN8Qt3DCore5QNodeE@Qt_5 5.7.1~20161122
 _ZN10Qt3DRender9QMaterialC2EPN8Qt3DCore5QNodeE@Qt_5 5.7.1~20161122
 _ZN10Qt3DRender9QMaterialD0Ev@Qt_5 5.7.1~20161122
 _ZN10Qt3DRender9QMaterialD1Ev@Qt_5 5.7.1~20161122
 _ZN10Qt3DRender9QMaterialD2Ev@Qt_5 5.7.1~20161122
 _ZN10Qt3DRender9QSetFence11qt_metacallEN11QMetaObject4CallEiPPv@Qt_5 5.14.2
 _ZN10Qt3DRender9QSetFence11qt_metacastEPKc@Qt_5 5.14.2
 _ZN10Qt3DRender9QSetFence13handleChangedE8QVariant@Qt_5 5.14.2
 _ZN10Qt3DRender9QSetFence16sceneChangeEventERK14QSharedPointerIN8Qt3DCore12QSceneChangeEE@Qt_5 5.14.2
 _ZN10Qt3DRender9QSetFence16staticMetaObjectE@Qt_5 5.14.2
 _ZN10Qt3DRender9QSetFence17handleTypeChangedENS0_10HandleTypeE@Qt_5 5.14.2
 _ZN10Qt3DRender9QSetFenceC1EPN8Qt3DCore5QNodeE@Qt_5 5.14.2
 _ZN10Qt3DRender9QSetFenceC1ERNS_16QSetFencePrivateEPN8Qt3DCore5QNodeE@Qt_5 5.14.2
 _ZN10Qt3DRender9QSetFenceC2EPN8Qt3DCore5QNodeE@Qt_5 5.14.2
 _ZN10Qt3DRender9QSetFenceC2ERNS_16QSetFencePrivateEPN8Qt3DCore5QNodeE@Qt_5 5.14.2
 _ZN10Qt3DRender9QSetFenceD0Ev@Qt_5 5.14.2
 _ZN10Qt3DRender9QSetFenceD1Ev@Qt_5 5.14.2
 _ZN10Qt3DRender9QSetFenceD2Ev@Qt_5 5.14.2
 _ZN10Qt3DRender9QViewport11qt_metacallEN11QMetaObject4CallEiPPv@Qt_5 5.7.1~20161122
 _ZN10Qt3DRender9QViewport11qt_metacastEPKc@Qt_5 5.7.1~20161122
 _ZN10Qt3DRender9QViewport12gammaChangedEf@Qt_5 5.9.0
 _ZN10Qt3DRender9QViewport16staticMetaObjectE@Qt_5 5.7.1~20161122
 _ZN10Qt3DRender9QViewport17setNormalizedRectERK6QRectF@Qt_5 5.7.1~20161122
 _ZN10Qt3DRender9QViewport21normalizedRectChangedERK6QRectF@Qt_5 5.7.1~20161122
 _ZN10Qt3DRender9QViewport8setGammaEf@Qt_5 5.9.0
 _ZN10Qt3DRender9QViewportC1EPN8Qt3DCore5QNodeE@Qt_5 5.7.1~20161122
 _ZN10Qt3DRender9QViewportC1ERNS_16QViewportPrivateEPN8Qt3DCore5QNodeE@Qt_5 5.7.1~20161122
 _ZN10Qt3DRender9QViewportC2EPN8Qt3DCore5QNodeE@Qt_5 5.7.1~20161122
 _ZN10Qt3DRender9QViewportC2ERNS_16QViewportPrivateEPN8Qt3DCore5QNodeE@Qt_5 5.7.1~20161122
 _ZN10Qt3DRender9QViewportD0Ev@Qt_5 5.7.1~20161122
 _ZN10Qt3DRender9QViewportD1Ev@Qt_5 5.7.1~20161122
 _ZN10Qt3DRender9QViewportD2Ev@Qt_5 5.7.1~20161122
 _ZN10Qt3DRendereqERKNS_11QShaderNode4RuleES3_@Qt_5 5.15.1
 _ZN10Qt3DRendereqERKNS_12QShaderGraph4EdgeES3_@Qt_5 5.15.1
 _ZN10Qt3DRendereqERKNS_12QShaderGraph9StatementES3_@Qt_5 5.15.1
 _ZN10Qt3DRendereqERKNS_13QShaderFormatES2_@Qt_5 5.15.1
 _ZN10Qt3DRendereqERKNS_15QShaderNodePortES2_@Qt_5 5.15.1
 _ZN10Qt3DRendereqERKNS_18QTextureDataUpdateES2_@Qt_5 5.14.2
 _ZN15QShaderLanguage16staticMetaObjectE@Qt_5 5.15.1
 _ZNK10Qt3DRender10QAlphaTest10metaObjectEv@Qt_5 5.7.1~20161122
 _ZNK10Qt3DRender10QAlphaTest13alphaFunctionEv@Qt_5 5.7.1~20161122
 _ZNK10Qt3DRender10QAlphaTest14referenceValueEv@Qt_5 5.7.1~20161122
 _ZNK10Qt3DRender10QAlphaTest24createNodeCreationChangeEv@Qt_5 5.7.1~20161122
 _ZNK10Qt3DRender10QAttribute10byteOffsetEv@Qt_5 5.7.1~20161122
 _ZNK10Qt3DRender10QAttribute10byteStrideEv@Qt_5 5.7.1~20161122
 _ZNK10Qt3DRender10QAttribute10metaObjectEv@Qt_5 5.7.1~20161122
 _ZNK10Qt3DRender10QAttribute10vertexSizeEv@Qt_5 5.7.1~20161122
 _ZNK10Qt3DRender10QAttribute13attributeTypeEv@Qt_5 5.7.1~20161122
 _ZNK10Qt3DRender10QAttribute14vertexBaseTypeEv@Qt_5 5.7.1~20161122
 _ZNK10Qt3DRender10QAttribute24createNodeCreationChangeEv@Qt_5 5.7.1~20161122
 _ZNK10Qt3DRender10QAttribute4nameEv@Qt_5 5.7.1~20161122
 _ZNK10Qt3DRender10QAttribute5countEv@Qt_5 5.7.1~20161122
 _ZNK10Qt3DRender10QAttribute6bufferEv@Qt_5 5.7.1~20161122
 _ZNK10Qt3DRender10QAttribute7divisorEv@Qt_5 5.7.1~20161122
 _ZNK10Qt3DRender10QClipPlane10metaObjectEv@Qt_5 5.7.1~20161122
 _ZNK10Qt3DRender10QClipPlane10planeIndexEv@Qt_5 5.7.1~20161122
 _ZNK10Qt3DRender10QClipPlane24createNodeCreationChangeEv@Qt_5 5.7.1~20161122
 _ZNK10Qt3DRender10QClipPlane6normalEv@Qt_5 5.7.1~20161122
 _ZNK10Qt3DRender10QClipPlane8distanceEv@Qt_5 5.7.1~20161122
 _ZNK10Qt3DRender10QColorMask10metaObjectEv@Qt_5 5.7.1~20161122
 _ZNK10Qt3DRender10QColorMask11isRedMaskedEv@Qt_5 5.7.1~20161122
 _ZNK10Qt3DRender10QColorMask12isBlueMaskedEv@Qt_5 5.7.1~20161122
 _ZNK10Qt3DRender10QColorMask13isAlphaMaskedEv@Qt_5 5.7.1~20161122
 _ZNK10Qt3DRender10QColorMask13isGreenMaskedEv@Qt_5 5.7.1~20161122
 _ZNK10Qt3DRender10QColorMask24createNodeCreationChangeEv@Qt_5 5.7.1~20161122
 _ZNK10Qt3DRender10QDepthTest10metaObjectEv@Qt_5 5.7.1~20161122
 _ZNK10Qt3DRender10QDepthTest13depthFunctionEv@Qt_5 5.7.1~20161122
 _ZNK10Qt3DRender10QDepthTest24createNodeCreationChangeEv@Qt_5 5.7.1~20161122
 _ZNK10Qt3DRender10QDithering10metaObjectEv@Qt_5 5.7.1~20161122
 _ZNK10Qt3DRender10QFilterKey10metaObjectEv@Qt_5 5.7.1~20161122
 _ZNK10Qt3DRender10QFilterKey24createNodeCreationChangeEv@Qt_5 5.7.1~20161122
 _ZNK10Qt3DRender10QFilterKey4nameEv@Qt_5 5.7.1~20161122
 _ZNK10Qt3DRender10QFilterKey5valueEv@Qt_5 5.7.1~20161122
 _ZNK10Qt3DRender10QFrontFace10metaObjectEv@Qt_5 5.7.1~20161122
 _ZNK10Qt3DRender10QFrontFace24createNodeCreationChangeEv@Qt_5 5.7.1~20161122
 _ZNK10Qt3DRender10QFrontFace9directionEv@Qt_5 5.7.1~20161122
 _ZNK10Qt3DRender10QLineWidth10metaObjectEv@Qt_5 5.10.1
 _ZNK10Qt3DRender10QLineWidth24createNodeCreationChangeEv@Qt_5 5.10.1
 _ZNK10Qt3DRender10QLineWidth5valueEv@Qt_5 5.10.1
 _ZNK10Qt3DRender10QLineWidth6smoothEv@Qt_5 5.10.1
 _ZNK10Qt3DRender10QNoPicking10metaObjectEv@Qt_5 5.14.2
 _ZNK10Qt3DRender10QParameter10metaObjectEv@Qt_5 5.7.1~20161122
 _ZNK10Qt3DRender10QParameter24createNodeCreationChangeEv@Qt_5 5.7.1~20161122
 _ZNK10Qt3DRender10QParameter4nameEv@Qt_5 5.7.1~20161122
 _ZNK10Qt3DRender10QParameter5valueEv@Qt_5 5.7.1~20161122
 _ZNK10Qt3DRender10QPickEvent10isAcceptedEv@Qt_5 5.7.1~20161122
 _ZNK10Qt3DRender10QPickEvent10metaObjectEv@Qt_5 5.7.1~20161122
 _ZNK10Qt3DRender10QPickEvent17localIntersectionEv@Qt_5 5.7.1~20161122
 _ZNK10Qt3DRender10QPickEvent17worldIntersectionEv@Qt_5 5.7.1~20161122
 _ZNK10Qt3DRender10QPickEvent6buttonEv@Qt_5 5.9.0
 _ZNK10Qt3DRender10QPickEvent6entityEv@Qt_5 5.14.2
 _ZNK10Qt3DRender10QPickEvent7buttonsEv@Qt_5 5.9.0
 _ZNK10Qt3DRender10QPickEvent8distanceEv@Qt_5 5.7.1~20161122
 _ZNK10Qt3DRender10QPickEvent8positionEv@Qt_5 5.7.1~20161122
 _ZNK10Qt3DRender10QPickEvent8viewportEv@Qt_5 5.14.2
 _ZNK10Qt3DRender10QPickEvent9modifiersEv@Qt_5 5.9.0
 _ZNK10Qt3DRender10QPointSize10metaObjectEv@Qt_5 5.7.1~20161122
 _ZNK10Qt3DRender10QPointSize24createNodeCreationChangeEv@Qt_5 5.7.1~20161122
 _ZNK10Qt3DRender10QPointSize5valueEv@Qt_5 5.7.1~20161122
 _ZNK10Qt3DRender10QPointSize8sizeModeEv@Qt_5 5.7.1~20161122
 _ZNK10Qt3DRender10QRayCaster10metaObjectEv@Qt_5 5.11.1
 _ZNK10Qt3DRender10QRayCaster6lengthEv@Qt_5 5.11.1
 _ZNK10Qt3DRender10QRayCaster6originEv@Qt_5 5.11.1
 _ZNK10Qt3DRender10QRayCaster9directionEv@Qt_5 5.11.1
 _ZNK10Qt3DRender10QSpotLight10metaObjectEv@Qt_5 5.7.1~20161122
 _ZNK10Qt3DRender10QSpotLight11cutOffAngleEv@Qt_5 5.7.1~20161122
 _ZNK10Qt3DRender10QSpotLight14localDirectionEv@Qt_5 5.7.1~20161122
 _ZNK10Qt3DRender10QSpotLight17linearAttenuationEv@Qt_5 5.7.1~20161122
 _ZNK10Qt3DRender10QSpotLight19constantAttenuationEv@Qt_5 5.7.1~20161122
 _ZNK10Qt3DRender10QSpotLight20quadraticAttenuationEv@Qt_5 5.7.1~20161122
 _ZNK10Qt3DRender10QTechnique10filterKeysEv@Qt_5 5.7.1~20161122
 _ZNK10Qt3DRender10QTechnique10metaObjectEv@Qt_5 5.7.1~20161122
 _ZNK10Qt3DRender10QTechnique10parametersEv@Qt_5 5.7.1~20161122
 _ZNK10Qt3DRender10QTechnique12renderPassesEv@Qt_5 5.7.1~20161122
 _ZNK10Qt3DRender10QTechnique17graphicsApiFilterEv@Qt_5 5.14.2
 _ZNK10Qt3DRender10QTechnique24createNodeCreationChangeEv@Qt_5 5.7.1~20161122
 _ZNK10Qt3DRender10QTexture1D10metaObjectEv@Qt_5 5.7.1~20161122
 _ZNK10Qt3DRender10QTexture2D10metaObjectEv@Qt_5 5.7.1~20161122
 _ZNK10Qt3DRender10QTexture3D10metaObjectEv@Qt_5 5.7.1~20161122
 _ZNK10Qt3DRender10QWaitFence10handleTypeEv@Qt_5 5.14.2
 _ZNK10Qt3DRender10QWaitFence10metaObjectEv@Qt_5 5.14.2
 _ZNK10Qt3DRender10QWaitFence24createNodeCreationChangeEv@Qt_5 5.14.2
 _ZNK10Qt3DRender10QWaitFence6handleEv@Qt_5 5.14.2
 _ZNK10Qt3DRender10QWaitFence7timeoutEv@Qt_5 5.14.2
 _ZNK10Qt3DRender10QWaitFence9waitOnCPUEv@Qt_5 5.14.2
 _ZNK10Qt3DRender11QCameraLens10metaObjectEv@Qt_5 5.7.1~20161122
 _ZNK10Qt3DRender11QCameraLens11aspectRatioEv@Qt_5 5.7.1~20161122
 _ZNK10Qt3DRender11QCameraLens11fieldOfViewEv@Qt_5 5.7.1~20161122
 _ZNK10Qt3DRender11QCameraLens14projectionTypeEv@Qt_5 5.7.1~20161122
 _ZNK10Qt3DRender11QCameraLens16projectionMatrixEv@Qt_5 5.7.1~20161122
 _ZNK10Qt3DRender11QCameraLens24createNodeCreationChangeEv@Qt_5 5.7.1~20161122
 _ZNK10Qt3DRender11QCameraLens3topEv@Qt_5 5.7.1~20161122
 _ZNK10Qt3DRender11QCameraLens4leftEv@Qt_5 5.7.1~20161122
 _ZNK10Qt3DRender11QCameraLens5rightEv@Qt_5 5.7.1~20161122
 _ZNK10Qt3DRender11QCameraLens6bottomEv@Qt_5 5.7.1~20161122
 _ZNK10Qt3DRender11QCameraLens8exposureEv@Qt_5 5.9.0
 _ZNK10Qt3DRender11QCameraLens8farPlaneEv@Qt_5 5.7.1~20161122
 _ZNK10Qt3DRender11QCameraLens9nearPlaneEv@Qt_5 5.7.1~20161122
 _ZNK10Qt3DRender11QDepthRange10metaObjectEv@Qt_5 5.14.2
 _ZNK10Qt3DRender11QDepthRange24createNodeCreationChangeEv@Qt_5 5.14.2
 _ZNK10Qt3DRender11QDepthRange8farValueEv@Qt_5 5.14.2
 _ZNK10Qt3DRender11QDepthRange9nearValueEv@Qt_5 5.14.2
 _ZNK10Qt3DRender11QPointLight10metaObjectEv@Qt_5 5.7.1~20161122
 _ZNK10Qt3DRender11QPointLight17linearAttenuationEv@Qt_5 5.7.1~20161122
 _ZNK10Qt3DRender11QPointLight19constantAttenuationEv@Qt_5 5.7.1~20161122
 _ZNK10Qt3DRender11QPointLight20quadraticAttenuationEv@Qt_5 5.7.1~20161122
 _ZNK10Qt3DRender11QRasterMode10metaObjectEv@Qt_5 5.14.2
 _ZNK10Qt3DRender11QRasterMode10rasterModeEv@Qt_5 5.14.2
 _ZNK10Qt3DRender11QRasterMode24createNodeCreationChangeEv@Qt_5 5.14.2
 _ZNK10Qt3DRender11QRasterMode8faceModeEv@Qt_5 5.14.2
 _ZNK10Qt3DRender11QRenderPass10filterKeysEv@Qt_5 5.7.1~20161122
 _ZNK10Qt3DRender11QRenderPass10metaObjectEv@Qt_5 5.7.1~20161122
 _ZNK10Qt3DRender11QRenderPass10parametersEv@Qt_5 5.7.1~20161122
 _ZNK10Qt3DRender11QRenderPass12renderStatesEv@Qt_5 5.7.1~20161122
 _ZNK10Qt3DRender11QRenderPass13shaderProgramEv@Qt_5 5.7.1~20161122
 _ZNK10Qt3DRender11QRenderPass24createNodeCreationChangeEv@Qt_5 5.7.1~20161122
 _ZNK10Qt3DRender11QShaderData10metaObjectEv@Qt_5 5.7.1~20161122
 _ZNK10Qt3DRender11QShaderData14propertyReaderEv@Qt_5 5.7.1~20161122
 _ZNK10Qt3DRender11QShaderData24createNodeCreationChangeEv@Qt_5 5.7.1~20161122
 _ZNK10Qt3DRender11QShaderNode14parameterNamesEv@Qt_5 5.15.1
 _ZNK10Qt3DRender11QShaderNode16availableFormatsEv@Qt_5 5.15.1
 _ZNK10Qt3DRender11QShaderNode4ruleERKNS_13QShaderFormatE@Qt_5 5.15.1
 _ZNK10Qt3DRender11QShaderNode4typeEv@Qt_5 5.15.1
 _ZNK10Qt3DRender11QShaderNode4uuidEv@Qt_5 5.15.1
 _ZNK10Qt3DRender11QShaderNode5portsEv@Qt_5 5.15.1
 _ZNK10Qt3DRender11QShaderNode6layersEv@Qt_5 5.15.1
 _ZNK10Qt3DRender11QShaderNode9parameterERK7QString@Qt_5 5.15.1
 _ZNK10Qt3DRender11QSortPolicy10metaObjectEv@Qt_5 5.7.1~20161122
 _ZNK10Qt3DRender11QSortPolicy12sortTypesIntEv@Qt_5 5.7.1~20161122
 _ZNK10Qt3DRender11QSortPolicy24createNodeCreationChangeEv@Qt_5 5.7.1~20161122
 _ZNK10Qt3DRender11QSortPolicy9sortTypesEv@Qt_5 5.7.1~20161122
 _ZNK10Qt3DRender12QLayerFilter10filterModeEv@Qt_5 5.10.1
 _ZNK10Qt3DRender12QLayerFilter10metaObjectEv@Qt_5 5.7.1~20161122
 _ZNK10Qt3DRender12QLayerFilter24createNodeCreationChangeEv@Qt_5 5.7.1~20161122
 _ZNK10Qt3DRender12QLayerFilter6layersEv@Qt_5 5.7.1~20161122
 _ZNK10Qt3DRender12QNoDepthMask10metaObjectEv@Qt_5 5.7.1~20161122
 _ZNK10Qt3DRender12QRenderState10metaObjectEv@Qt_5 5.7.1~20161122
 _ZNK10Qt3DRender12QRenderState24createNodeCreationChangeEv@Qt_5 5.7.1~20161122
 _ZNK10Qt3DRender12QSceneLoader10metaObjectEv@Qt_5 5.7.1~20161122
 _ZNK10Qt3DRender12QSceneLoader11entityNamesEv@Qt_5 5.9.0
 _ZNK10Qt3DRender12QSceneLoader24createNodeCreationChangeEv@Qt_5 5.7.1~20161122
 _ZNK10Qt3DRender12QSceneLoader6entityERK7QString@Qt_5 5.9.0
 _ZNK10Qt3DRender12QSceneLoader6sourceEv@Qt_5 5.7.1~20161122
 _ZNK10Qt3DRender12QSceneLoader6statusEv@Qt_5 5.7.1~20161122
 _ZNK10Qt3DRender12QSceneLoader9componentERK7QStringNS0_13ComponentTypeE@Qt_5 5.9.0
 _ZNK10Qt3DRender12QScissorTest10metaObjectEv@Qt_5 5.7.1~20161122
 _ZNK10Qt3DRender12QScissorTest24createNodeCreationChangeEv@Qt_5 5.7.1~20161122
 _ZNK10Qt3DRender12QScissorTest4leftEv@Qt_5 5.7.1~20161122
 _ZNK10Qt3DRender12QScissorTest5widthEv@Qt_5 5.7.1~20161122
 _ZNK10Qt3DRender12QScissorTest6bottomEv@Qt_5 5.7.1~20161122
 _ZNK10Qt3DRender12QScissorTest6heightEv@Qt_5 5.7.1~20161122
 _ZNK10Qt3DRender12QShaderGraph16createStatementsERK11QStringList@Qt_5 5.15.1
 _ZNK10Qt3DRender12QShaderGraph5edgesEv@Qt_5 5.15.1
 _ZNK10Qt3DRender12QShaderGraph5nodesEv@Qt_5 5.15.1
 _ZNK10Qt3DRender12QShaderGraph9Statement4uuidEv@Qt_5 5.15.1
 _ZNK10Qt3DRender12QShaderGraph9Statement9portIndexENS_15QShaderNodePort9DirectionERK7QString@Qt_5 5.15.1
 _ZNK10Qt3DRender12QShaderImage10metaObjectEv@Qt_5 5.14.2
 _ZNK10Qt3DRender12QShaderImage24createNodeCreationChangeEv@Qt_5 5.14.2
 _ZNK10Qt3DRender12QShaderImage5layerEv@Qt_5 5.14.2
 _ZNK10Qt3DRender12QShaderImage6accessEv@Qt_5 5.14.2
 _ZNK10Qt3DRender12QShaderImage6formatEv@Qt_5 5.14.2
 _ZNK10Qt3DRender12QShaderImage7layeredEv@Qt_5 5.14.2
 _ZNK10Qt3DRender12QShaderImage7textureEv@Qt_5 5.14.2
 _ZNK10Qt3DRender12QShaderImage8mipLevelEv@Qt_5 5.14.2
 _ZNK10Qt3DRender12QStencilMask10metaObjectEv@Qt_5 5.7.1~20161122
 _ZNK10Qt3DRender12QStencilMask14backOutputMaskEv@Qt_5 5.7.1~20161122
 _ZNK10Qt3DRender12QStencilMask15frontOutputMaskEv@Qt_5 5.7.1~20161122
 _ZNK10Qt3DRender12QStencilMask24createNodeCreationChangeEv@Qt_5 5.7.1~20161122
 _ZNK10Qt3DRender12QStencilTest10metaObjectEv@Qt_5 5.7.1~20161122
 _ZNK10Qt3DRender12QStencilTest24createNodeCreationChangeEv@Qt_5 5.7.1~20161122
 _ZNK10Qt3DRender12QStencilTest4backEv@Qt_5 5.7.1~20161122
 _ZNK10Qt3DRender12QStencilTest5frontEv@Qt_5 5.7.1~20161122
 _ZNK10Qt3DRender12QTextureData14comparisonModeEv@Qt_5 5.7.1~20161122
 _ZNK10Qt3DRender12QTextureData17maximumAnisotropyEv@Qt_5 5.7.1~20161122
 _ZNK10Qt3DRender12QTextureData18comparisonFunctionEv@Qt_5 5.7.1~20161122
 _ZNK10Qt3DRender12QTextureData18minificationFilterEv@Qt_5 5.7.1~20161122
 _ZNK10Qt3DRender12QTextureData19magnificationFilterEv@Qt_5 5.7.1~20161122
 _ZNK10Qt3DRender12QTextureData29isAutoMipMapGenerationEnabledEv@Qt_5 5.7.1~20161122
 _ZNK10Qt3DRender12QTextureData5depthEv@Qt_5 5.7.1~20161122
 _ZNK10Qt3DRender12QTextureData5widthEv@Qt_5 5.7.1~20161122
 _ZNK10Qt3DRender12QTextureData6formatEv@Qt_5 5.7.1~20161122
 _ZNK10Qt3DRender12QTextureData6heightEv@Qt_5 5.7.1~20161122
 _ZNK10Qt3DRender12QTextureData6layersEv@Qt_5 5.7.1~20161122
 _ZNK10Qt3DRender12QTextureData6targetEv@Qt_5 5.7.1~20161122
 _ZNK10Qt3DRender12QTextureData9imageDataEv@Qt_5 5.7.1~20161122
 _ZNK10Qt3DRender12QTextureData9wrapModeXEv@Qt_5 5.7.1~20161122
 _ZNK10Qt3DRender12QTextureData9wrapModeYEv@Qt_5 5.7.1~20161122
 _ZNK10Qt3DRender12QTextureData9wrapModeZEv@Qt_5 5.7.1~20161122
 _ZNK10Qt3DRender13QClearBuffers10clearColorEv@Qt_5 5.7.1~20161122
 _ZNK10Qt3DRender13QClearBuffers10metaObjectEv@Qt_5 5.7.1~20161122
 _ZNK10Qt3DRender13QClearBuffers11colorBufferEv@Qt_5 5.7.1~20161122
 _ZNK10Qt3DRender13QClearBuffers15clearDepthValueEv@Qt_5 5.7.1~20161122
 _ZNK10Qt3DRender13QClearBuffers17clearStencilValueEv@Qt_5 5.7.1~20161122
 _ZNK10Qt3DRender13QClearBuffers24createNodeCreationChangeEv@Qt_5 5.7.1~20161122
 _ZNK10Qt3DRender13QClearBuffers7buffersEv@Qt_5 5.7.1~20161122
 _ZNK10Qt3DRender13QDebugOverlay10metaObjectEv@Qt_5 5.15.1
 _ZNK10Qt3DRender13QObjectPicker10metaObjectEv@Qt_5 5.7.1~20161122
 _ZNK10Qt3DRender13QObjectPicker13containsMouseEv@Qt_5 5.7.1~20161122
 _ZNK10Qt3DRender13QObjectPicker13isDragEnabledEv@Qt_5 5.7.1~20161122
 _ZNK10Qt3DRender13QObjectPicker14isHoverEnabledEv@Qt_5 5.7.1~20161122
 _ZNK10Qt3DRender13QObjectPicker24createNodeCreationChangeEv@Qt_5 5.7.1~20161122
 _ZNK10Qt3DRender13QObjectPicker8priorityEv@Qt_5 5.14.2
 _ZNK10Qt3DRender13QObjectPicker9isPressedEv@Qt_5 5.7.1~20161122
 _ZNK10Qt3DRender13QRayCasterHit12vertex1IndexEv@Qt_5 5.11.1
 _ZNK10Qt3DRender13QRayCasterHit12vertex2IndexEv@Qt_5 5.11.1
 _ZNK10Qt3DRender13QRayCasterHit12vertex3IndexEv@Qt_5 5.11.1
 _ZNK10Qt3DRender13QRayCasterHit14primitiveIndexEv@Qt_5 5.11.1
 _ZNK10Qt3DRender13QRayCasterHit17localIntersectionEv@Qt_5 5.11.1
 _ZNK10Qt3DRender13QRayCasterHit17worldIntersectionEv@Qt_5 5.11.1
 _ZNK10Qt3DRender13QRayCasterHit4typeEv@Qt_5 5.11.1
 _ZNK10Qt3DRender13QRayCasterHit6entityEv@Qt_5 5.11.1
 _ZNK10Qt3DRender13QRayCasterHit8distanceEv@Qt_5 5.11.1
 _ZNK10Qt3DRender13QRayCasterHit8entityIdEv@Qt_5 5.11.1
 _ZNK10Qt3DRender13QRayCasterHit9setEntityEPN8Qt3DCore7QEntityE@Qt_5 5.11.1
 _ZNK10Qt3DRender13QRenderAspect10metaObjectEv@Qt_5 5.7.1~20161122
 _ZNK10Qt3DRender13QRenderTarget10metaObjectEv@Qt_5 5.7.1~20161122
 _ZNK10Qt3DRender13QRenderTarget24createNodeCreationChangeEv@Qt_5 5.7.1~20161122
 _ZNK10Qt3DRender13QRenderTarget7outputsEv@Qt_5 5.7.1~20161122
 _ZNK10Qt3DRender13QShaderFormat10extensionsEv@Qt_5 5.15.1
 _ZNK10Qt3DRender13QShaderFormat10shaderTypeEv@Qt_5 5.15.1
 _ZNK10Qt3DRender13QShaderFormat3apiEv@Qt_5 5.15.1
 _ZNK10Qt3DRender13QShaderFormat6vendorEv@Qt_5 5.15.1
 _ZNK10Qt3DRender13QShaderFormat7isValidEv@Qt_5 5.15.1
 _ZNK10Qt3DRender13QShaderFormat7versionEv@Qt_5 5.15.1
 _ZNK10Qt3DRender13QShaderFormat8supportsERKS0_@Qt_5 5.15.1
 _ZNK10Qt3DRender13QTextureImage10isMirroredEv@Qt_5 5.9.0
 _ZNK10Qt3DRender13QTextureImage10metaObjectEv@Qt_5 5.7.1~20161122
 _ZNK10Qt3DRender13QTextureImage13dataGeneratorEv@Qt_5 5.7.1~20161122
 _ZNK10Qt3DRender13QTextureImage6sourceEv@Qt_5 5.7.1~20161122
 _ZNK10Qt3DRender13QTextureImage6statusEv@Qt_5 5.7.1~20161122
 _ZNK10Qt3DRender14QAbstractLight10metaObjectEv@Qt_5 5.7.1~20161122
 _ZNK10Qt3DRender14QAbstractLight24createNodeCreationChangeEv@Qt_5 5.7.1~20161122
 _ZNK10Qt3DRender14QAbstractLight4typeEv@Qt_5 5.7.1~20161122
 _ZNK10Qt3DRender14QAbstractLight5colorEv@Qt_5 5.7.1~20161122
 _ZNK10Qt3DRender14QAbstractLight9intensityEv@Qt_5 5.7.1~20161122
 _ZNK10Qt3DRender14QAlphaCoverage10metaObjectEv@Qt_5 5.7.1~20161122
 _ZNK10Qt3DRender14QBlendEquation10metaObjectEv@Qt_5 5.7.1~20161122
 _ZNK10Qt3DRender14QBlendEquation13blendFunctionEv@Qt_5 5.7.1~20161122
 _ZNK10Qt3DRender14QBlendEquation24createNodeCreationChangeEv@Qt_5 5.7.1~20161122
 _ZNK10Qt3DRender14QBufferCapture10metaObjectEv@Qt_5 5.9.0
 _ZNK10Qt3DRender14QLevelOfDetail10metaObjectEv@Qt_5 5.9.0
 _ZNK10Qt3DRender14QLevelOfDetail10thresholdsEv@Qt_5 5.9.0
 _ZNK10Qt3DRender14QLevelOfDetail12currentIndexEv@Qt_5 5.9.0
 _ZNK10Qt3DRender14QLevelOfDetail13thresholdTypeEv@Qt_5 5.9.0
 _ZNK10Qt3DRender14QLevelOfDetail14volumeOverrideEv@Qt_5 5.9.0
 _ZNK10Qt3DRender14QLevelOfDetail24createNodeCreationChangeEv@Qt_5 5.9.0
 _ZNK10Qt3DRender14QLevelOfDetail6cameraEv@Qt_5 5.9.0
 _ZNK10Qt3DRender14QMemoryBarrier10metaObjectEv@Qt_5 5.9.0
 _ZNK10Qt3DRender14QMemoryBarrier14waitOperationsEv@Qt_5 5.9.0
 _ZNK10Qt3DRender14QMemoryBarrier24createNodeCreationChangeEv@Qt_5 5.9.0
 _ZNK10Qt3DRender14QPickLineEvent10metaObjectEv@Qt_5 5.10.1
 _ZNK10Qt3DRender14QPickLineEvent12vertex1IndexEv@Qt_5 5.10.1
 _ZNK10Qt3DRender14QPickLineEvent12vertex2IndexEv@Qt_5 5.10.1
 _ZNK10Qt3DRender14QPickLineEvent9edgeIndexEv@Qt_5 5.10.1
 _ZNK10Qt3DRender14QPolygonOffset10depthStepsEv@Qt_5 5.7.1~20161122
 _ZNK10Qt3DRender14QPolygonOffset10metaObjectEv@Qt_5 5.7.1~20161122
 _ZNK10Qt3DRender14QPolygonOffset11scaleFactorEv@Qt_5 5.7.1~20161122
 _ZNK10Qt3DRender14QPolygonOffset24createNodeCreationChangeEv@Qt_5 5.7.1~20161122
 _ZNK10Qt3DRender14QRenderCapture10metaObjectEv@Qt_5 5.9.0
 _ZNK10Qt3DRender14QRenderCapture24createNodeCreationChangeEv@Qt_5 5.9.0
 _ZNK10Qt3DRender14QShaderProgram10metaObjectEv@Qt_5 5.7.1~20161122
 _ZNK10Qt3DRender14QShaderProgram10shaderCodeENS0_10ShaderTypeE@Qt_5 5.7.1~20161122
 _ZNK10Qt3DRender14QShaderProgram16vertexShaderCodeEv@Qt_5 5.7.1~20161122
 _ZNK10Qt3DRender14QShaderProgram17computeShaderCodeEv@Qt_5 5.7.1~20161122
 _ZNK10Qt3DRender14QShaderProgram18fragmentShaderCodeEv@Qt_5 5.7.1~20161122
 _ZNK10Qt3DRender14QShaderProgram18geometryShaderCodeEv@Qt_5 5.7.1~20161122
 _ZNK10Qt3DRender14QShaderProgram24createNodeCreationChangeEv@Qt_5 5.7.1~20161122
 _ZNK10Qt3DRender14QShaderProgram29tessellationControlShaderCodeEv@Qt_5 5.7.1~20161122
 _ZNK10Qt3DRender14QShaderProgram32tessellationEvaluationShaderCodeEv@Qt_5 5.7.1~20161122
 _ZNK10Qt3DRender14QShaderProgram3logEv@Qt_5 5.9.0
 _ZNK10Qt3DRender14QShaderProgram6formatEv@Qt_5 5.15.1
 _ZNK10Qt3DRender14QShaderProgram6statusEv@Qt_5 5.9.0
 _ZNK10Qt3DRender14QTextureBuffer10metaObjectEv@Qt_5 5.7.1~20161122
 _ZNK10Qt3DRender14QTextureLoader10isMirroredEv@Qt_5 5.9.0
 _ZNK10Qt3DRender14QTextureLoader10metaObjectEv@Qt_5 5.7.1~20161122
 _ZNK10Qt3DRender14QTextureLoader6sourceEv@Qt_5 5.7.1~20161122
 _ZNK10Qt3DRender15QCameraSelector10metaObjectEv@Qt_5 5.7.1~20161122
 _ZNK10Qt3DRender15QCameraSelector24createNodeCreationChangeEv@Qt_5 5.7.1~20161122
 _ZNK10Qt3DRender15QCameraSelector6cameraEv@Qt_5 5.7.1~20161122
 _ZNK10Qt3DRender15QComputeCommand10metaObjectEv@Qt_5 5.7.1~20161122
 _ZNK10Qt3DRender15QComputeCommand10workGroupXEv@Qt_5 5.7.1~20161122
 _ZNK10Qt3DRender15QComputeCommand10workGroupYEv@Qt_5 5.7.1~20161122
 _ZNK10Qt3DRender15QComputeCommand10workGroupZEv@Qt_5 5.7.1~20161122
 _ZNK10Qt3DRender15QComputeCommand24createNodeCreationChangeEv@Qt_5 5.7.1~20161122
 _ZNK10Qt3DRender15QComputeCommand7runTypeEv@Qt_5 5.14.2
 _ZNK10Qt3DRender15QFrameGraphNode10metaObjectEv@Qt_5 5.7.1~20161122
 _ZNK10Qt3DRender15QFrameGraphNode20parentFrameGraphNodeEv@Qt_5 5.7.1~20161122
 _ZNK10Qt3DRender15QFrameGraphNode24createNodeCreationChangeEv@Qt_5 5.9.0
 _ZNK10Qt3DRender15QFrustumCulling10metaObjectEv@Qt_5 5.7.1~20161122
 _ZNK10Qt3DRender15QPickPointEvent10metaObjectEv@Qt_5 5.10.1
 _ZNK10Qt3DRender15QPickPointEvent10pointIndexEv@Qt_5 5.10.1
 _ZNK10Qt3DRender15QRenderSettings10metaObjectEv@Qt_5 5.7.1~20161122
 _ZNK10Qt3DRender15QRenderSettings12renderPolicyEv@Qt_5 5.7.1~20161122
 _ZNK10Qt3DRender15QRenderSettings16activeFrameGraphEv@Qt_5 5.7.1~20161122
 _ZNK10Qt3DRender15QRenderSettings24createNodeCreationChangeEv@Qt_5 5.7.1~20161122
 _ZNK10Qt3DRender15QRenderStateSet10metaObjectEv@Qt_5 5.7.1~20161122
 _ZNK10Qt3DRender15QRenderStateSet12renderStatesEv@Qt_5 5.7.1~20161122
 _ZNK10Qt3DRender15QRenderStateSet24createNodeCreationChangeEv@Qt_5 5.7.1~20161122
 _ZNK10Qt3DRender15QSubtreeEnabler10enablementEv@Qt_5 5.14.2
 _ZNK10Qt3DRender15QSubtreeEnabler10metaObjectEv@Qt_5 5.14.2
 _ZNK10Qt3DRender15QSubtreeEnabler24createNodeCreationChangeEv@Qt_5 5.14.2
 _ZNK10Qt3DRender15QTexture1DArray10metaObjectEv@Qt_5 5.7.1~20161122
 _ZNK10Qt3DRender15QTexture2DArray10metaObjectEv@Qt_5 5.7.1~20161122
 _ZNK10Qt3DRender15QTextureCubeMap10metaObjectEv@Qt_5 5.7.1~20161122
 _ZNK10Qt3DRender16QAbstractTexture10handleTypeEv@Qt_5 5.14.2
 _ZNK10Qt3DRender16QAbstractTexture10metaObjectEv@Qt_5 5.7.1~20161122
 _ZNK10Qt3DRender16QAbstractTexture13dataGeneratorEv@Qt_5 5.7.1~20161122
 _ZNK10Qt3DRender16QAbstractTexture13textureImagesEv@Qt_5 5.7.1~20161122
 _ZNK10Qt3DRender16QAbstractTexture14comparisonModeEv@Qt_5 5.7.1~20161122
 _ZNK10Qt3DRender16QAbstractTexture15generateMipMapsEv@Qt_5 5.7.1~20161122
 _ZNK10Qt3DRender16QAbstractTexture17maximumAnisotropyEv@Qt_5 5.7.1~20161122
 _ZNK10Qt3DRender16QAbstractTexture18comparisonFunctionEv@Qt_5 5.7.1~20161122
 _ZNK10Qt3DRender16QAbstractTexture18minificationFilterEv@Qt_5 5.7.1~20161122
 _ZNK10Qt3DRender16QAbstractTexture19magnificationFilterEv@Qt_5 5.7.1~20161122
 _ZNK10Qt3DRender16QAbstractTexture24createNodeCreationChangeEv@Qt_5 5.7.1~20161122
 _ZNK10Qt3DRender16QAbstractTexture5depthEv@Qt_5 5.7.1~20161122
 _ZNK10Qt3DRender16QAbstractTexture5widthEv@Qt_5 5.7.1~20161122
 _ZNK10Qt3DRender16QAbstractTexture6formatEv@Qt_5 5.7.1~20161122
 _ZNK10Qt3DRender16QAbstractTexture6handleEv@Qt_5 5.14.2
 _ZNK10Qt3DRender16QAbstractTexture6heightEv@Qt_5 5.7.1~20161122
 _ZNK10Qt3DRender16QAbstractTexture6layersEv@Qt_5 5.7.1~20161122
 _ZNK10Qt3DRender16QAbstractTexture6statusEv@Qt_5 5.7.1~20161122
 _ZNK10Qt3DRender16QAbstractTexture6targetEv@Qt_5 5.7.1~20161122
 _ZNK10Qt3DRender16QAbstractTexture7samplesEv@Qt_5 5.9.0
 _ZNK10Qt3DRender16QBlitFramebuffer10metaObjectEv@Qt_5 5.10.1
 _ZNK10Qt3DRender16QBlitFramebuffer10sourceRectEv@Qt_5 5.10.1
 _ZNK10Qt3DRender16QBlitFramebuffer11destinationEv@Qt_5 5.10.1
 _ZNK10Qt3DRender16QBlitFramebuffer15destinationRectEv@Qt_5 5.10.1
 _ZNK10Qt3DRender16QBlitFramebuffer19interpolationMethodEv@Qt_5 5.10.1
 _ZNK10Qt3DRender16QBlitFramebuffer21sourceAttachmentPointEv@Qt_5 5.10.1
 _ZNK10Qt3DRender16QBlitFramebuffer24createNodeCreationChangeEv@Qt_5 5.10.1
 _ZNK10Qt3DRender16QBlitFramebuffer26destinationAttachmentPointEv@Qt_5 5.10.1
 _ZNK10Qt3DRender16QBlitFramebuffer6sourceEv@Qt_5 5.10.1
 _ZNK10Qt3DRender16QDispatchCompute10metaObjectEv@Qt_5 5.7.1~20161122
 _ZNK10Qt3DRender16QDispatchCompute10workGroupXEv@Qt_5 5.7.1~20161122
 _ZNK10Qt3DRender16QDispatchCompute10workGroupYEv@Qt_5 5.7.1~20161122
 _ZNK10Qt3DRender16QDispatchCompute10workGroupZEv@Qt_5 5.7.1~20161122
 _ZNK10Qt3DRender16QDispatchCompute24createNodeCreationChangeEv@Qt_5 5.7.1~20161122
 _ZNK10Qt3DRender16QPickingSettings10metaObjectEv@Qt_5 5.7.1~20161122
 _ZNK10Qt3DRender16QPickingSettings10pickMethodEv@Qt_5 5.7.1~20161122
 _ZNK10Qt3DRender16QPickingSettings14pickResultModeEv@Qt_5 5.7.1~20161122
 _ZNK10Qt3DRender16QPickingSettings19worldSpaceToleranceEv@Qt_5 5.10.1
 _ZNK10Qt3DRender16QPickingSettings26faceOrientationPickingModeEv@Qt_5 5.9.0
 _ZNK10Qt3DRender16QProximityFilter10metaObjectEv@Qt_5 5.10.1
 _ZNK10Qt3DRender16QProximityFilter17distanceThresholdEv@Qt_5 5.10.1
 _ZNK10Qt3DRender16QProximityFilter24createNodeCreationChangeEv@Qt_5 5.10.1
 _ZNK10Qt3DRender16QProximityFilter6entityEv@Qt_5 5.10.1
 _ZNK10Qt3DRender16QScreenRayCaster10metaObjectEv@Qt_5 5.11.1
 _ZNK10Qt3DRender16QScreenRayCaster8positionEv@Qt_5 5.11.1
 _ZNK10Qt3DRender16QSeamlessCubemap10metaObjectEv@Qt_5 5.7.1~20161122
 _ZNK10Qt3DRender16QShaderGenerator16createShaderCodeERK11QStringList@Qt_5 5.15.1
 _ZNK10Qt3DRender16QSharedGLTexture10metaObjectEv@Qt_5 5.14.2
 _ZNK10Qt3DRender16QSharedGLTexture9textureIdEv@Qt_5 5.14.2
 _ZNK10Qt3DRender16QTechniqueFilter10metaObjectEv@Qt_5 5.7.1~20161122
 _ZNK10Qt3DRender16QTechniqueFilter10parametersEv@Qt_5 5.7.1~20161122
 _ZNK10Qt3DRender16QTechniqueFilter24createNodeCreationChangeEv@Qt_5 5.7.1~20161122
 _ZNK10Qt3DRender16QTechniqueFilter8matchAllEv@Qt_5 5.7.1~20161122
 _ZNK10Qt3DRender16QTextureWrapMode10metaObjectEv@Qt_5 5.7.1~20161122
 _ZNK10Qt3DRender16QTextureWrapMode1xEv@Qt_5 5.7.1~20161122
 _ZNK10Qt3DRender16QTextureWrapMode1yEv@Qt_5 5.7.1~20161122
 _ZNK10Qt3DRender16QTextureWrapMode1zEv@Qt_5 5.7.1~20161122
 _ZNK10Qt3DRender17QDirectionalLight10metaObjectEv@Qt_5 5.7.1~20161122
 _ZNK10Qt3DRender17QDirectionalLight14worldDirectionEv@Qt_5 5.7.1~20161122
 _ZNK10Qt3DRender17QEnvironmentLight10irradianceEv@Qt_5 5.9.0
 _ZNK10Qt3DRender17QEnvironmentLight10metaObjectEv@Qt_5 5.9.0
 _ZNK10Qt3DRender17QEnvironmentLight24createNodeCreationChangeEv@Qt_5 5.9.0
 _ZNK10Qt3DRender17QEnvironmentLight8specularEv@Qt_5 5.9.0
 _ZNK10Qt3DRender17QGeometryRenderer10metaObjectEv@Qt_5 5.7.1~20161122
 _ZNK10Qt3DRender17QGeometryRenderer11firstVertexEv@Qt_5 5.7.1~20161122
 _ZNK10Qt3DRender17QGeometryRenderer11indexOffsetEv@Qt_5 5.7.1~20161122
 _ZNK10Qt3DRender17QGeometryRenderer11vertexCountEv@Qt_5 5.7.1~20161122
 _ZNK10Qt3DRender17QGeometryRenderer13firstInstanceEv@Qt_5 5.7.1~20161122
 _ZNK10Qt3DRender17QGeometryRenderer13instanceCountEv@Qt_5 5.7.1~20161122
 _ZNK10Qt3DRender17QGeometryRenderer13primitiveTypeEv@Qt_5 5.7.1~20161122
 _ZNK10Qt3DRender17QGeometryRenderer15geometryFactoryEv@Qt_5 5.7.1~20161122
 _ZNK10Qt3DRender17QGeometryRenderer16verticesPerPatchEv@Qt_5 5.7.1~20161122
 _ZNK10Qt3DRender17QGeometryRenderer17restartIndexValueEv@Qt_5 5.7.1~20161122
 _ZNK10Qt3DRender17QGeometryRenderer21indexBufferByteOffsetEv@Qt_5 5.10.1
 _ZNK10Qt3DRender17QGeometryRenderer23primitiveRestartEnabledEv@Qt_5 5.7.1~20161122
 _ZNK10Qt3DRender17QGeometryRenderer24createNodeCreationChangeEv@Qt_5 5.7.1~20161122
 _ZNK10Qt3DRender17QGeometryRenderer8geometryEv@Qt_5 5.7.1~20161122
 _ZNK10Qt3DRender17QRenderPassFilter10metaObjectEv@Qt_5 5.7.1~20161122
 _ZNK10Qt3DRender17QRenderPassFilter10parametersEv@Qt_5 5.7.1~20161122
 _ZNK10Qt3DRender17QRenderPassFilter24createNodeCreationChangeEv@Qt_5 5.7.1~20161122
 _ZNK10Qt3DRender17QRenderPassFilter8matchAnyEv@Qt_5 5.7.1~20161122
 _ZNK10Qt3DRender17QStencilOperation10metaObjectEv@Qt_5 5.7.1~20161122
 _ZNK10Qt3DRender17QStencilOperation24createNodeCreationChangeEv@Qt_5 5.7.1~20161122
 _ZNK10Qt3DRender17QStencilOperation4backEv@Qt_5 5.7.1~20161122
 _ZNK10Qt3DRender17QStencilOperation5frontEv@Qt_5 5.7.1~20161122
 _ZNK10Qt3DRender17QTextureImageData11pixelFormatEv@Qt_5 5.7.1~20161122
 _ZNK10Qt3DRender17QTextureImageData12isCompressedEv@Qt_5 5.7.1~20161122
 _ZNK10Qt3DRender17QTextureImageData4dataEiii@Qt_5 5.7.1~20161122
 _ZNK10Qt3DRender17QTextureImageData5depthEv@Qt_5 5.7.1~20161122
 _ZNK10Qt3DRender17QTextureImageData5facesEv@Qt_5 5.7.1~20161122
 _ZNK10Qt3DRender17QTextureImageData5widthEv@Qt_5 5.7.1~20161122
 _ZNK10Qt3DRender17QTextureImageData6formatEv@Qt_5 5.7.1~20161122
 _ZNK10Qt3DRender17QTextureImageData6heightEv@Qt_5 5.7.1~20161122
 _ZNK10Qt3DRender17QTextureImageData6layersEv@Qt_5 5.7.1~20161122
 _ZNK10Qt3DRender17QTextureImageData6targetEv@Qt_5 5.7.1~20161122
 _ZNK10Qt3DRender17QTextureImageData9mipLevelsEv@Qt_5 5.7.1~20161122
 _ZNK10Qt3DRender17QTextureImageData9pixelTypeEv@Qt_5 5.7.1~20161122
 _ZNK10Qt3DRender17QTextureRectangle10metaObjectEv@Qt_5 5.7.1~20161122
 _ZNK10Qt3DRender18QAbstractRayCaster10filterModeEv@Qt_5 5.11.1
 _ZNK10Qt3DRender18QAbstractRayCaster10metaObjectEv@Qt_5 5.11.1
 _ZNK10Qt3DRender18QAbstractRayCaster24createNodeCreationChangeEv@Qt_5 5.11.1
 _ZNK10Qt3DRender18QAbstractRayCaster4hitsEv@Qt_5 5.11.1
 _ZNK10Qt3DRender18QAbstractRayCaster6layersEv@Qt_5 5.11.1
 _ZNK10Qt3DRender18QAbstractRayCaster7runModeEv@Qt_5 5.11.1
 _ZNK10Qt3DRender18QGraphicsApiFilter10extensionsEv@Qt_5 5.7.1~20161122
 _ZNK10Qt3DRender18QGraphicsApiFilter10metaObjectEv@Qt_5 5.7.1~20161122
 _ZNK10Qt3DRender18QGraphicsApiFilter12majorVersionEv@Qt_5 5.7.1~20161122
 _ZNK10Qt3DRender18QGraphicsApiFilter12minorVersionEv@Qt_5 5.7.1~20161122
 _ZNK10Qt3DRender18QGraphicsApiFilter3apiEv@Qt_5 5.7.1~20161122
 _ZNK10Qt3DRender18QGraphicsApiFilter6vendorEv@Qt_5 5.7.1~20161122
 _ZNK10Qt3DRender18QGraphicsApiFilter7profileEv@Qt_5 5.7.1~20161122
 _ZNK10Qt3DRender18QPickTriangleEvent10metaObjectEv@Qt_5 5.7.1~20161122
 _ZNK10Qt3DRender18QPickTriangleEvent12vertex1IndexEv@Qt_5 5.7.1~20161122
 _ZNK10Qt3DRender18QPickTriangleEvent12vertex2IndexEv@Qt_5 5.7.1~20161122
 _ZNK10Qt3DRender18QPickTriangleEvent12vertex3IndexEv@Qt_5 5.7.1~20161122
 _ZNK10Qt3DRender18QPickTriangleEvent13triangleIndexEv@Qt_5 5.7.1~20161122
 _ZNK10Qt3DRender18QPickTriangleEvent3uvwEv@Qt_5 5.9.0
 _ZNK10Qt3DRender18QShaderGraphLoader10prototypesEv@Qt_5 5.15.1
 _ZNK10Qt3DRender18QShaderGraphLoader5graphEv@Qt_5 5.15.1
 _ZNK10Qt3DRender18QShaderGraphLoader6deviceEv@Qt_5 5.15.1
 _ZNK10Qt3DRender18QShaderGraphLoader6statusEv@Qt_5 5.15.1
 _ZNK10Qt3DRender18QShaderNodesLoader5nodesEv@Qt_5 5.15.1
 _ZNK10Qt3DRender18QShaderNodesLoader6deviceEv@Qt_5 5.15.1
 _ZNK10Qt3DRender18QShaderNodesLoader6statusEv@Qt_5 5.15.1
 _ZNK10Qt3DRender18QTextureDataUpdate1xEv@Qt_5 5.14.2
 _ZNK10Qt3DRender18QTextureDataUpdate1yEv@Qt_5 5.14.2
 _ZNK10Qt3DRender18QTextureDataUpdate1zEv@Qt_5 5.14.2
 _ZNK10Qt3DRender18QTextureDataUpdate4dataEv@Qt_5 5.14.2
 _ZNK10Qt3DRender18QTextureDataUpdate4faceEv@Qt_5 5.14.2
 _ZNK10Qt3DRender18QTextureDataUpdate5layerEv@Qt_5 5.14.2
 _ZNK10Qt3DRender18QTextureDataUpdate8mipLevelEv@Qt_5 5.14.2
 _ZNK10Qt3DRender19QRenderCapabilities10extensionsEv@Qt_5 5.15.1
 _ZNK10Qt3DRender19QRenderCapabilities10maxSamplesEv@Qt_5 5.15.1
 _ZNK10Qt3DRender19QRenderCapabilities10maxUBOSizeEv@Qt_5 5.15.1
 _ZNK10Qt3DRender19QRenderCapabilities10metaObjectEv@Qt_5 5.15.1
 _ZNK10Qt3DRender19QRenderCapabilities11glslVersionEv@Qt_5 5.15.1
 _ZNK10Qt3DRender19QRenderCapabilities11maxSSBOSizeEv@Qt_5 5.15.1
 _ZNK10Qt3DRender19QRenderCapabilities11supportsUBOEv@Qt_5 5.15.1
 _ZNK10Qt3DRender19QRenderCapabilities12majorVersionEv@Qt_5 5.15.1
 _ZNK10Qt3DRender19QRenderCapabilities12minorVersionEv@Qt_5 5.15.1
 _ZNK10Qt3DRender19QRenderCapabilities12supportsSSBOEv@Qt_5 5.15.1
 _ZNK10Qt3DRender19QRenderCapabilities13driverVersionEv@Qt_5 5.15.1
 _ZNK10Qt3DRender19QRenderCapabilities13maxImageUnitsEv@Qt_5 5.15.1
 _ZNK10Qt3DRender19QRenderCapabilities14maxTextureSizeEv@Qt_5 5.15.1
 _ZNK10Qt3DRender19QRenderCapabilities14maxUBOBindingsEv@Qt_5 5.15.1
 _ZNK10Qt3DRender19QRenderCapabilities15maxSSBOBindingsEv@Qt_5 5.15.1
 _ZNK10Qt3DRender19QRenderCapabilities15maxTextureUnitsEv@Qt_5 5.15.1
 _ZNK10Qt3DRender19QRenderCapabilities15supportsComputeEv@Qt_5 5.15.1
 _ZNK10Qt3DRender19QRenderCapabilities16maxTextureLayersEv@Qt_5 5.15.1
 _ZNK10Qt3DRender19QRenderCapabilities17maxWorkGroupSizeXEv@Qt_5 5.15.1
 _ZNK10Qt3DRender19QRenderCapabilities17maxWorkGroupSizeYEv@Qt_5 5.15.1
 _ZNK10Qt3DRender19QRenderCapabilities17maxWorkGroupSizeZEv@Qt_5 5.15.1
 _ZNK10Qt3DRender19QRenderCapabilities18maxWorkGroupCountXEv@Qt_5 5.15.1
 _ZNK10Qt3DRender19QRenderCapabilities18maxWorkGroupCountYEv@Qt_5 5.15.1
 _ZNK10Qt3DRender19QRenderCapabilities18maxWorkGroupCountZEv@Qt_5 5.15.1
 _ZNK10Qt3DRender19QRenderCapabilities18supportsImageStoreEv@Qt_5 5.15.1
 _ZNK10Qt3DRender19QRenderCapabilities21maxComputeInvocationsEv@Qt_5 5.15.1
 _ZNK10Qt3DRender19QRenderCapabilities26maxComputeSharedMemorySizeEv@Qt_5 5.15.1
 _ZNK10Qt3DRender19QRenderCapabilities3apiEv@Qt_5 5.15.1
 _ZNK10Qt3DRender19QRenderCapabilities6vendorEv@Qt_5 5.15.1
 _ZNK10Qt3DRender19QRenderCapabilities7isValidEv@Qt_5 5.15.1
 _ZNK10Qt3DRender19QRenderCapabilities7profileEv@Qt_5 5.15.1
 _ZNK10Qt3DRender19QRenderCapabilities8rendererEv@Qt_5 5.15.1
 _ZNK10Qt3DRender19QRenderCaptureReply10isCompleteEv@Qt_5 5.9.0
 _ZNK10Qt3DRender19QRenderCaptureReply10metaObjectEv@Qt_5 5.9.0
 _ZNK10Qt3DRender19QRenderCaptureReply10saveToFileERK7QString@Qt_5 5.9.0
 _ZNK10Qt3DRender19QRenderCaptureReply5imageEv@Qt_5 5.9.0
 _ZNK10Qt3DRender19QRenderCaptureReply9captureIdEv@Qt_5 5.9.0
 _ZNK10Qt3DRender19QRenderCaptureReply9saveImageERK7QString@Qt_5 5.9.0
 _ZNK10Qt3DRender19QRenderTargetOutput10metaObjectEv@Qt_5 5.7.1~20161122
 _ZNK10Qt3DRender19QRenderTargetOutput15attachmentPointEv@Qt_5 5.7.1~20161122
 _ZNK10Qt3DRender19QRenderTargetOutput24createNodeCreationChangeEv@Qt_5 5.7.1~20161122
 _ZNK10Qt3DRender19QRenderTargetOutput4faceEv@Qt_5 5.7.1~20161122
 _ZNK10Qt3DRender19QRenderTargetOutput5layerEv@Qt_5 5.7.1~20161122
 _ZNK10Qt3DRender19QRenderTargetOutput7textureEv@Qt_5 5.7.1~20161122
 _ZNK10Qt3DRender19QRenderTargetOutput8mipLevelEv@Qt_5 5.7.1~20161122
 _ZNK10Qt3DRender20QLevelOfDetailSwitch10metaObjectEv@Qt_5 5.9.0
 _ZNK10Qt3DRender20QPaintedTextureImage10metaObjectEv@Qt_5 5.9.0
 _ZNK10Qt3DRender20QPaintedTextureImage13dataGeneratorEv@Qt_5 5.9.0
 _ZNK10Qt3DRender20QPaintedTextureImage4sizeEv@Qt_5 5.9.0
 _ZNK10Qt3DRender20QPaintedTextureImage5widthEv@Qt_5 5.9.0
 _ZNK10Qt3DRender20QPaintedTextureImage6heightEv@Qt_5 5.9.0
 _ZNK10Qt3DRender20QTextureCubeMapArray10metaObjectEv@Qt_5 5.7.1~20161122
 _ZNK10Qt3DRender21QAbstractTextureImage10metaObjectEv@Qt_5 5.7.1~20161122
 _ZNK10Qt3DRender21QAbstractTextureImage24createNodeCreationChangeEv@Qt_5 5.7.1~20161122
 _ZNK10Qt3DRender21QAbstractTextureImage4faceEv@Qt_5 5.7.1~20161122
 _ZNK10Qt3DRender21QAbstractTextureImage5layerEv@Qt_5 5.7.1~20161122
 _ZNK10Qt3DRender21QAbstractTextureImage8mipLevelEv@Qt_5 5.7.1~20161122
 _ZNK10Qt3DRender21QRenderTargetSelector10metaObjectEv@Qt_5 5.7.1~20161122
 _ZNK10Qt3DRender21QRenderTargetSelector24createNodeCreationChangeEv@Qt_5 5.7.1~20161122
 _ZNK10Qt3DRender21QRenderTargetSelector6targetEv@Qt_5 5.7.1~20161122
 _ZNK10Qt3DRender21QRenderTargetSelector7outputsEv@Qt_5 5.7.1~20161122
 _ZNK10Qt3DRender21QShaderProgramBuilder10metaObjectEv@Qt_5 5.10.1
 _ZNK10Qt3DRender21QShaderProgramBuilder13enabledLayersEv@Qt_5 5.10.1
 _ZNK10Qt3DRender21QShaderProgramBuilder13shaderProgramEv@Qt_5 5.10.1
 _ZNK10Qt3DRender21QShaderProgramBuilder16vertexShaderCodeEv@Qt_5 5.14.2
 _ZNK10Qt3DRender21QShaderProgramBuilder17computeShaderCodeEv@Qt_5 5.14.2
 _ZNK10Qt3DRender21QShaderProgramBuilder17vertexShaderGraphEv@Qt_5 5.10.1
 _ZNK10Qt3DRender21QShaderProgramBuilder18computeShaderGraphEv@Qt_5 5.10.1
 _ZNK10Qt3DRender21QShaderProgramBuilder18fragmentShaderCodeEv@Qt_5 5.14.2
 _ZNK10Qt3DRender21QShaderProgramBuilder18geometryShaderCodeEv@Qt_5 5.14.2
 _ZNK10Qt3DRender21QShaderProgramBuilder19fragmentShaderGraphEv@Qt_5 5.10.1
 _ZNK10Qt3DRender21QShaderProgramBuilder19geometryShaderGraphEv@Qt_5 5.10.1
 _ZNK10Qt3DRender21QShaderProgramBuilder24createNodeCreationChangeEv@Qt_5 5.10.1
 _ZNK10Qt3DRender21QShaderProgramBuilder29tessellationControlShaderCodeEv@Qt_5 5.14.2
 _ZNK10Qt3DRender21QShaderProgramBuilder30tessellationControlShaderGraphEv@Qt_5 5.10.1
 _ZNK10Qt3DRender21QShaderProgramBuilder32tessellationEvaluationShaderCodeEv@Qt_5 5.14.2
 _ZNK10Qt3DRender21QShaderProgramBuilder33tessellationEvaluationShaderGraphEv@Qt_5 5.10.1
 _ZNK10Qt3DRender21QStencilTestArguments10metaObjectEv@Qt_5 5.7.1~20161122
 _ZNK10Qt3DRender21QStencilTestArguments14comparisonMaskEv@Qt_5 5.7.1~20161122
 _ZNK10Qt3DRender21QStencilTestArguments14referenceValueEv@Qt_5 5.7.1~20161122
 _ZNK10Qt3DRender21QStencilTestArguments15stencilFunctionEv@Qt_5 5.7.1~20161122
 _ZNK10Qt3DRender21QStencilTestArguments8faceModeEv@Qt_5 5.7.1~20161122
 _ZNK10Qt3DRender21QTexture2DMultisample10metaObjectEv@Qt_5 5.7.1~20161122
 _ZNK10Qt3DRender22QRenderSurfaceSelector10metaObjectEv@Qt_5 5.7.1~20161122
 _ZNK10Qt3DRender22QRenderSurfaceSelector17surfacePixelRatioEv@Qt_5 5.7.1~20161122
 _ZNK10Qt3DRender22QRenderSurfaceSelector24createNodeCreationChangeEv@Qt_5 5.7.1~20161122
 _ZNK10Qt3DRender22QRenderSurfaceSelector24externalRenderTargetSizeEv@Qt_5 5.7.1~20161122
 _ZNK10Qt3DRender22QRenderSurfaceSelector7surfaceEv@Qt_5 5.7.1~20161122
 _ZNK10Qt3DRender23QBlendEquationArguments10metaObjectEv@Qt_5 5.7.1~20161122
 _ZNK10Qt3DRender23QBlendEquationArguments11bufferIndexEv@Qt_5 5.7.1~20161122
 _ZNK10Qt3DRender23QBlendEquationArguments11sourceAlphaEv@Qt_5 5.7.1~20161122
 _ZNK10Qt3DRender23QBlendEquationArguments14destinationRgbEv@Qt_5 5.7.1~20161122
 _ZNK10Qt3DRender23QBlendEquationArguments16destinationAlphaEv@Qt_5 5.7.1~20161122
 _ZNK10Qt3DRender23QBlendEquationArguments24createNodeCreationChangeEv@Qt_5 5.7.1~20161122
 _ZNK10Qt3DRender23QBlendEquationArguments9sourceRgbEv@Qt_5 5.7.1~20161122
 _ZNK10Qt3DRender24QMultiSampleAntiAliasing10metaObjectEv@Qt_5 5.7.1~20161122
 _ZNK10Qt3DRender26QStencilOperationArguments10metaObjectEv@Qt_5 5.7.1~20161122
 _ZNK10Qt3DRender26QStencilOperationArguments21allTestsPassOperationEv@Qt_5 5.7.1~20161122
 _ZNK10Qt3DRender26QStencilOperationArguments25depthTestFailureOperationEv@Qt_5 5.7.1~20161122
 _ZNK10Qt3DRender26QStencilOperationArguments27stencilTestFailureOperationEv@Qt_5 5.7.1~20161122
 _ZNK10Qt3DRender26QStencilOperationArguments8faceModeEv@Qt_5 5.7.1~20161122
 _ZNK10Qt3DRender26QTexture2DMultisampleArray10metaObjectEv@Qt_5 5.7.1~20161122
 _ZNK10Qt3DRender28QLevelOfDetailBoundingSphere6centerEv@Qt_5 5.9.0
 _ZNK10Qt3DRender28QLevelOfDetailBoundingSphere6radiusEv@Qt_5 5.9.0
 _ZNK10Qt3DRender28QLevelOfDetailBoundingSphere7isEmptyEv@Qt_5 5.9.0
 _ZNK10Qt3DRender28QLevelOfDetailBoundingSphereeqERKS0_@Qt_5 5.9.0
 _ZNK10Qt3DRender28QLevelOfDetailBoundingSphereneERKS0_@Qt_5 5.9.0
 _ZNK10Qt3DRender32QFrameGraphNodeCreatedChangeBase22parentFrameGraphNodeIdEv@Qt_5 5.9.0
 _ZNK10Qt3DRender5QMesh10metaObjectEv@Qt_5 5.7.1~20161122
 _ZNK10Qt3DRender5QMesh6sourceEv@Qt_5 5.7.1~20161122
 _ZNK10Qt3DRender5QMesh6statusEv@Qt_5 5.11.1
 _ZNK10Qt3DRender5QMesh8meshNameEv@Qt_5 5.7.1~20161122
 _ZNK10Qt3DRender6QLayer10metaObjectEv@Qt_5 5.7.1~20161122
 _ZNK10Qt3DRender6QLayer24createNodeCreationChangeEv@Qt_5 5.10.1
 _ZNK10Qt3DRender6QLayer9recursiveEv@Qt_5 5.10.1
 _ZNK10Qt3DRender7QBuffer10accessTypeEv@Qt_5 5.9.0
 _ZNK10Qt3DRender7QBuffer10isSyncDataEv@Qt_5 5.7.1~20161122
 _ZNK10Qt3DRender7QBuffer10metaObjectEv@Qt_5 5.7.1~20161122
 _ZNK10Qt3DRender7QBuffer13dataGeneratorEv@Qt_5 5.7.1~20161122
 _ZNK10Qt3DRender7QBuffer24createNodeCreationChangeEv@Qt_5 5.7.1~20161122
 _ZNK10Qt3DRender7QBuffer4dataEv@Qt_5 5.7.1~20161122
 _ZNK10Qt3DRender7QBuffer4typeEv@Qt_5 5.7.1~20161122
 _ZNK10Qt3DRender7QBuffer5usageEv@Qt_5 5.7.1~20161122
 _ZNK10Qt3DRender7QCamera10metaObjectEv@Qt_5 5.7.1~20161122
 _ZNK10Qt3DRender7QCamera10viewCenterEv@Qt_5 5.7.1~20161122
 _ZNK10Qt3DRender7QCamera10viewMatrixEv@Qt_5 5.7.1~20161122
 _ZNK10Qt3DRender7QCamera10viewVectorEv@Qt_5 5.7.1~20161122
 _ZNK10Qt3DRender7QCamera11aspectRatioEv@Qt_5 5.7.1~20161122
 _ZNK10Qt3DRender7QCamera11fieldOfViewEv@Qt_5 5.7.1~20161122
 _ZNK10Qt3DRender7QCamera11panRotationEf@Qt_5 5.7.1~20161122
 _ZNK10Qt3DRender7QCamera12rollRotationEf@Qt_5 5.7.1~20161122
 _ZNK10Qt3DRender7QCamera12tiltRotationEf@Qt_5 5.7.1~20161122
 _ZNK10Qt3DRender7QCamera14projectionTypeEv@Qt_5 5.7.1~20161122
 _ZNK10Qt3DRender7QCamera16projectionMatrixEv@Qt_5 5.7.1~20161122
 _ZNK10Qt3DRender7QCamera3topEv@Qt_5 5.7.1~20161122
 _ZNK10Qt3DRender7QCamera4leftEv@Qt_5 5.7.1~20161122
 _ZNK10Qt3DRender7QCamera4lensEv@Qt_5 5.7.1~20161122
 _ZNK10Qt3DRender7QCamera5rightEv@Qt_5 5.7.1~20161122
 _ZNK10Qt3DRender7QCamera6bottomEv@Qt_5 5.7.1~20161122
 _ZNK10Qt3DRender7QCamera8exposureEv@Qt_5 5.9.0
 _ZNK10Qt3DRender7QCamera8farPlaneEv@Qt_5 5.7.1~20161122
 _ZNK10Qt3DRender7QCamera8positionEv@Qt_5 5.7.1~20161122
 _ZNK10Qt3DRender7QCamera8rotationEfRK9QVector3D@Qt_5 5.7.1~20161122
 _ZNK10Qt3DRender7QCamera8upVectorEv@Qt_5 5.7.1~20161122
 _ZNK10Qt3DRender7QCamera9nearPlaneEv@Qt_5 5.7.1~20161122
 _ZNK10Qt3DRender7QCamera9transformEv@Qt_5 5.7.1~20161122
 _ZNK10Qt3DRender7QEffect10metaObjectEv@Qt_5 5.7.1~20161122
 _ZNK10Qt3DRender7QEffect10parametersEv@Qt_5 5.7.1~20161122
 _ZNK10Qt3DRender7QEffect10techniquesEv@Qt_5 5.7.1~20161122
 _ZNK10Qt3DRender7QEffect24createNodeCreationChangeEv@Qt_5 5.7.1~20161122
 _ZNK10Qt3DRender7QNoDraw10metaObjectEv@Qt_5 5.7.1~20161122
 _ZNK10Qt3DRender9QCullFace10metaObjectEv@Qt_5 5.7.1~20161122
 _ZNK10Qt3DRender9QCullFace24createNodeCreationChangeEv@Qt_5 5.7.1~20161122
 _ZNK10Qt3DRender9QCullFace4modeEv@Qt_5 5.7.1~20161122
 _ZNK10Qt3DRender9QGeometry10attributesEv@Qt_5 5.7.1~20161122
 _ZNK10Qt3DRender9QGeometry10metaObjectEv@Qt_5 5.7.1~20161122
 _ZNK10Qt3DRender9QGeometry24createNodeCreationChangeEv@Qt_5 5.7.1~20161122
 _ZNK10Qt3DRender9QGeometry31boundingVolumePositionAttributeEv@Qt_5 5.7.1~20161122
 _ZNK10Qt3DRender9QGeometry9maxExtentEv@Qt_5 5.14.2
 _ZNK10Qt3DRender9QGeometry9minExtentEv@Qt_5 5.14.2
 _ZNK10Qt3DRender9QMaterial10metaObjectEv@Qt_5 5.7.1~20161122
 _ZNK10Qt3DRender9QMaterial10parametersEv@Qt_5 5.7.1~20161122
 _ZNK10Qt3DRender9QMaterial24createNodeCreationChangeEv@Qt_5 5.7.1~20161122
 _ZNK10Qt3DRender9QMaterial6effectEv@Qt_5 5.7.1~20161122
 _ZNK10Qt3DRender9QSetFence10handleTypeEv@Qt_5 5.14.2
 _ZNK10Qt3DRender9QSetFence10metaObjectEv@Qt_5 5.14.2
 _ZNK10Qt3DRender9QSetFence24createNodeCreationChangeEv@Qt_5 5.14.2
 _ZNK10Qt3DRender9QSetFence6handleEv@Qt_5 5.14.2
 _ZNK10Qt3DRender9QViewport10metaObjectEv@Qt_5 5.7.1~20161122
 _ZNK10Qt3DRender9QViewport14normalizedRectEv@Qt_5 5.7.1~20161122
 _ZNK10Qt3DRender9QViewport24createNodeCreationChangeEv@Qt_5 5.7.1~20161122
 _ZNK10Qt3DRender9QViewport5gammaEv@Qt_5 5.9.0
 _ZTIN10Qt3DRender10QAlphaTestE@Qt_5 5.7.1~20161122
 _ZTIN10Qt3DRender10QAttributeE@Qt_5 5.7.1~20161122
 _ZTIN10Qt3DRender10QClipPlaneE@Qt_5 5.7.1~20161122
 _ZTIN10Qt3DRender10QColorMaskE@Qt_5 5.7.1~20161122
 _ZTIN10Qt3DRender10QDepthTestE@Qt_5 5.7.1~20161122
 _ZTIN10Qt3DRender10QDitheringE@Qt_5 5.7.1~20161122
 _ZTIN10Qt3DRender10QFilterKeyE@Qt_5 5.7.1~20161122
 _ZTIN10Qt3DRender10QFrontFaceE@Qt_5 5.7.1~20161122
 _ZTIN10Qt3DRender10QLineWidthE@Qt_5 5.10.1
 _ZTIN10Qt3DRender10QNoPickingE@Qt_5 5.14.2
 _ZTIN10Qt3DRender10QParameterE@Qt_5 5.7.1~20161122
 _ZTIN10Qt3DRender10QPickEventE@Qt_5 5.7.1~20161122
 _ZTIN10Qt3DRender10QPointSizeE@Qt_5 5.7.1~20161122
 _ZTIN10Qt3DRender10QRayCasterE@Qt_5 5.11.1
 _ZTIN10Qt3DRender10QSpotLightE@Qt_5 5.7.1~20161122
 _ZTIN10Qt3DRender10QTechniqueE@Qt_5 5.7.1~20161122
 _ZTIN10Qt3DRender10QTexture1DE@Qt_5 5.7.1~20161122
 _ZTIN10Qt3DRender10QTexture2DE@Qt_5 5.7.1~20161122
 _ZTIN10Qt3DRender10QTexture3DE@Qt_5 5.7.1~20161122
 _ZTIN10Qt3DRender10QWaitFenceE@Qt_5 5.14.2
 _ZTIN10Qt3DRender11QCameraLensE@Qt_5 5.7.1~20161122
 _ZTIN10Qt3DRender11QDepthRangeE@Qt_5 5.14.2
 _ZTIN10Qt3DRender11QPointLightE@Qt_5 5.7.1~20161122
 _ZTIN10Qt3DRender11QRasterModeE@Qt_5 5.14.2
 _ZTIN10Qt3DRender11QRenderPassE@Qt_5 5.7.1~20161122
 _ZTIN10Qt3DRender11QShaderDataE@Qt_5 5.7.1~20161122
 _ZTIN10Qt3DRender11QSortPolicyE@Qt_5 5.7.1~20161122
 _ZTIN10Qt3DRender12QLayerFilterE@Qt_5 5.7.1~20161122
 _ZTIN10Qt3DRender12QNoDepthMaskE@Qt_5 5.7.1~20161122
 _ZTIN10Qt3DRender12QRenderStateE@Qt_5 5.7.1~20161122
 _ZTIN10Qt3DRender12QSceneLoaderE@Qt_5 5.7.1~20161122
 _ZTIN10Qt3DRender12QScissorTestE@Qt_5 5.7.1~20161122
 _ZTIN10Qt3DRender12QShaderImageE@Qt_5 5.14.2
 _ZTIN10Qt3DRender12QStencilMaskE@Qt_5 5.7.1~20161122
 _ZTIN10Qt3DRender12QStencilTestE@Qt_5 5.7.1~20161122
 _ZTIN10Qt3DRender13QClearBuffersE@Qt_5 5.7.1~20161122
 _ZTIN10Qt3DRender13QDebugOverlayE@Qt_5 5.15.1
 _ZTIN10Qt3DRender13QObjectPickerE@Qt_5 5.7.1~20161122
 _ZTIN10Qt3DRender13QRenderAspectE@Qt_5 5.7.1~20161122
 _ZTIN10Qt3DRender13QRenderTargetE@Qt_5 5.7.1~20161122
 _ZTIN10Qt3DRender13QTextureImageE@Qt_5 5.7.1~20161122
 _ZTIN10Qt3DRender14QAbstractLightE@Qt_5 5.7.1~20161122
 _ZTIN10Qt3DRender14QAlphaCoverageE@Qt_5 5.7.1~20161122
 _ZTIN10Qt3DRender14QBlendEquationE@Qt_5 5.7.1~20161122
 _ZTIN10Qt3DRender14QBufferCaptureE@Qt_5 5.9.0
 _ZTIN10Qt3DRender14QLevelOfDetailE@Qt_5 5.9.0
 _ZTIN10Qt3DRender14QMemoryBarrierE@Qt_5 5.9.0
 _ZTIN10Qt3DRender14QPickLineEventE@Qt_5 5.10.1
 _ZTIN10Qt3DRender14QPolygonOffsetE@Qt_5 5.7.1~20161122
 _ZTIN10Qt3DRender14QRenderCaptureE@Qt_5 5.9.0
 _ZTIN10Qt3DRender14QShaderProgramE@Qt_5 5.7.1~20161122
 _ZTIN10Qt3DRender14QTextureBufferE@Qt_5 5.7.1~20161122
 _ZTIN10Qt3DRender14QTextureLoaderE@Qt_5 5.7.1~20161122
 _ZTIN10Qt3DRender15QCameraSelectorE@Qt_5 5.7.1~20161122
 _ZTIN10Qt3DRender15QComputeCommandE@Qt_5 5.7.1~20161122
 _ZTIN10Qt3DRender15QFrameGraphNodeE@Qt_5 5.7.1~20161122
 _ZTIN10Qt3DRender15QFrustumCullingE@Qt_5 5.7.1~20161122
 _ZTIN10Qt3DRender15QPickPointEventE@Qt_5 5.10.1
 _ZTIN10Qt3DRender15QRenderSettingsE@Qt_5 5.7.1~20161122
 _ZTIN10Qt3DRender15QRenderStateSetE@Qt_5 5.7.1~20161122
 _ZTIN10Qt3DRender15QSubtreeEnablerE@Qt_5 5.14.2
 _ZTIN10Qt3DRender15QTexture1DArrayE@Qt_5 5.7.1~20161122
 _ZTIN10Qt3DRender15QTexture2DArrayE@Qt_5 5.7.1~20161122
 _ZTIN10Qt3DRender15QTextureCubeMapE@Qt_5 5.7.1~20161122
 _ZTIN10Qt3DRender16QAbstractFunctorE@Qt_5 5.7.1~20161122
 _ZTIN10Qt3DRender16QAbstractTextureE@Qt_5 5.7.1~20161122
 _ZTIN10Qt3DRender16QBlitFramebufferE@Qt_5 5.10.1
 _ZTIN10Qt3DRender16QDispatchComputeE@Qt_5 5.7.1~20161122
 _ZTIN10Qt3DRender16QGeometryFactoryE@Qt_5 5.7.1~20161122
 _ZTIN10Qt3DRender16QPickingSettingsE@Qt_5 5.7.1~20161122
 _ZTIN10Qt3DRender16QProximityFilterE@Qt_5 5.10.1
 _ZTIN10Qt3DRender16QScreenRayCasterE@Qt_5 5.11.1
 _ZTIN10Qt3DRender16QSeamlessCubemapE@Qt_5 5.7.1~20161122
 _ZTIN10Qt3DRender16QSharedGLTextureE@Qt_5 5.14.2
 _ZTIN10Qt3DRender16QTechniqueFilterE@Qt_5 5.7.1~20161122
 _ZTIN10Qt3DRender16QTextureWrapModeE@Qt_5 5.7.1~20161122
 _ZTIN10Qt3DRender17QDirectionalLightE@Qt_5 5.7.1~20161122
 _ZTIN10Qt3DRender17QEnvironmentLightE@Qt_5 5.9.0
 _ZTIN10Qt3DRender17QGeometryRendererE@Qt_5 5.7.1~20161122
 _ZTIN10Qt3DRender17QRenderPassFilterE@Qt_5 5.7.1~20161122
 _ZTIN10Qt3DRender17QStencilOperationE@Qt_5 5.7.1~20161122
 _ZTIN10Qt3DRender17QTextureGeneratorE@Qt_5 5.7.1~20161122
 _ZTIN10Qt3DRender17QTextureRectangleE@Qt_5 5.7.1~20161122
 _ZTIN10Qt3DRender18QAbstractRayCasterE@Qt_5 5.11.1
 _ZTIN10Qt3DRender18QGraphicsApiFilterE@Qt_5 5.7.1~20161122
 _ZTIN10Qt3DRender18QPickTriangleEventE@Qt_5 5.7.1~20161122
 _ZTIN10Qt3DRender19QRenderCapabilitiesE@Qt_5 5.15.1
 _ZTIN10Qt3DRender19QRenderCaptureReplyE@Qt_5 5.9.0
 _ZTIN10Qt3DRender19QRenderTargetOutputE@Qt_5 5.7.1~20161122
 _ZTIN10Qt3DRender20QLevelOfDetailSwitchE@Qt_5 5.9.0
 _ZTIN10Qt3DRender20QPaintedTextureImageE@Qt_5 5.9.0
 _ZTIN10Qt3DRender20QTextureCubeMapArrayE@Qt_5 5.7.1~20161122
 _ZTIN10Qt3DRender21QAbstractTextureImageE@Qt_5 5.7.1~20161122
 _ZTIN10Qt3DRender21QRenderTargetSelectorE@Qt_5 5.7.1~20161122
 _ZTIN10Qt3DRender21QShaderProgramBuilderE@Qt_5 5.10.1
 _ZTIN10Qt3DRender21QStencilTestArgumentsE@Qt_5 5.7.1~20161122
 _ZTIN10Qt3DRender21QTexture2DMultisampleE@Qt_5 5.7.1~20161122
 _ZTIN10Qt3DRender22QRenderSurfaceSelectorE@Qt_5 5.7.1~20161122
 _ZTIN10Qt3DRender23PropertyReaderInterfaceE@Qt_5 5.7.1~20161122
 _ZTIN10Qt3DRender23QBlendEquationArgumentsE@Qt_5 5.7.1~20161122
 _ZTIN10Qt3DRender24QMultiSampleAntiAliasingE@Qt_5 5.7.1~20161122
 _ZTIN10Qt3DRender26QStencilOperationArgumentsE@Qt_5 5.7.1~20161122
 _ZTIN10Qt3DRender26QTexture2DMultisampleArrayE@Qt_5 5.7.1~20161122
 _ZTIN10Qt3DRender26QTextureImageDataGeneratorE@Qt_5 5.7.1~20161122
 _ZTIN10Qt3DRender32QFrameGraphNodeCreatedChangeBaseE@Qt_5 5.9.0
 _ZTIN10Qt3DRender5QMeshE@Qt_5 5.7.1~20161122
 _ZTIN10Qt3DRender6QLayerE@Qt_5 5.7.1~20161122
 _ZTIN10Qt3DRender6Render30UpdateWorldTransformJobPrivateE@Qt_5 5.14.2
 _ZTIN10Qt3DRender7QBufferE@Qt_5 5.7.1~20161122
 _ZTIN10Qt3DRender7QCameraE@Qt_5 5.7.1~20161122
 _ZTIN10Qt3DRender7QEffectE@Qt_5 5.7.1~20161122
 _ZTIN10Qt3DRender7QNoDrawE@Qt_5 5.7.1~20161122
 _ZTIN10Qt3DRender9QCullFaceE@Qt_5 5.7.1~20161122
 _ZTIN10Qt3DRender9QGeometryE@Qt_5 5.7.1~20161122
 _ZTIN10Qt3DRender9QMaterialE@Qt_5 5.7.1~20161122
 _ZTIN10Qt3DRender9QSetFenceE@Qt_5 5.14.2
 _ZTIN10Qt3DRender9QViewportE@Qt_5 5.7.1~20161122
 _ZTIN8Qt3DCore29QNodeCreatedChangeBasePrivateE@Qt_5 5.7.1~20161122
 _ZTSN10Qt3DRender10QAlphaTestE@Qt_5 5.7.1~20161122
 _ZTSN10Qt3DRender10QAttributeE@Qt_5 5.7.1~20161122
 _ZTSN10Qt3DRender10QClipPlaneE@Qt_5 5.7.1~20161122
 _ZTSN10Qt3DRender10QColorMaskE@Qt_5 5.7.1~20161122
 _ZTSN10Qt3DRender10QDepthTestE@Qt_5 5.7.1~20161122
 _ZTSN10Qt3DRender10QDitheringE@Qt_5 5.7.1~20161122
 _ZTSN10Qt3DRender10QFilterKeyE@Qt_5 5.7.1~20161122
 _ZTSN10Qt3DRender10QFrontFaceE@Qt_5 5.7.1~20161122
 _ZTSN10Qt3DRender10QLineWidthE@Qt_5 5.10.1
 _ZTSN10Qt3DRender10QNoPickingE@Qt_5 5.14.2
 _ZTSN10Qt3DRender10QParameterE@Qt_5 5.7.1~20161122
 _ZTSN10Qt3DRender10QPickEventE@Qt_5 5.7.1~20161122
 _ZTSN10Qt3DRender10QPointSizeE@Qt_5 5.7.1~20161122
 _ZTSN10Qt3DRender10QRayCasterE@Qt_5 5.11.1
 _ZTSN10Qt3DRender10QSpotLightE@Qt_5 5.7.1~20161122
 _ZTSN10Qt3DRender10QTechniqueE@Qt_5 5.7.1~20161122
 _ZTSN10Qt3DRender10QTexture1DE@Qt_5 5.7.1~20161122
 _ZTSN10Qt3DRender10QTexture2DE@Qt_5 5.7.1~20161122
 _ZTSN10Qt3DRender10QTexture3DE@Qt_5 5.7.1~20161122
 _ZTSN10Qt3DRender10QWaitFenceE@Qt_5 5.14.2
 _ZTSN10Qt3DRender11QCameraLensE@Qt_5 5.7.1~20161122
 _ZTSN10Qt3DRender11QDepthRangeE@Qt_5 5.14.2
 _ZTSN10Qt3DRender11QPointLightE@Qt_5 5.7.1~20161122
 _ZTSN10Qt3DRender11QRasterModeE@Qt_5 5.14.2
 _ZTSN10Qt3DRender11QRenderPassE@Qt_5 5.7.1~20161122
 _ZTSN10Qt3DRender11QShaderDataE@Qt_5 5.7.1~20161122
 _ZTSN10Qt3DRender11QSortPolicyE@Qt_5 5.7.1~20161122
 _ZTSN10Qt3DRender12QLayerFilterE@Qt_5 5.7.1~20161122
 _ZTSN10Qt3DRender12QNoDepthMaskE@Qt_5 5.7.1~20161122
 _ZTSN10Qt3DRender12QRenderStateE@Qt_5 5.7.1~20161122
 _ZTSN10Qt3DRender12QSceneLoaderE@Qt_5 5.7.1~20161122
 _ZTSN10Qt3DRender12QScissorTestE@Qt_5 5.7.1~20161122
 _ZTSN10Qt3DRender12QShaderImageE@Qt_5 5.14.2
 _ZTSN10Qt3DRender12QStencilMaskE@Qt_5 5.7.1~20161122
 _ZTSN10Qt3DRender12QStencilTestE@Qt_5 5.7.1~20161122
 _ZTSN10Qt3DRender13QClearBuffersE@Qt_5 5.7.1~20161122
 _ZTSN10Qt3DRender13QDebugOverlayE@Qt_5 5.15.1
 _ZTSN10Qt3DRender13QObjectPickerE@Qt_5 5.7.1~20161122
 _ZTSN10Qt3DRender13QRenderAspectE@Qt_5 5.7.1~20161122
 _ZTSN10Qt3DRender13QRenderTargetE@Qt_5 5.7.1~20161122
 _ZTSN10Qt3DRender13QTextureImageE@Qt_5 5.7.1~20161122
 _ZTSN10Qt3DRender14QAbstractLightE@Qt_5 5.7.1~20161122
 _ZTSN10Qt3DRender14QAlphaCoverageE@Qt_5 5.7.1~20161122
 _ZTSN10Qt3DRender14QBlendEquationE@Qt_5 5.7.1~20161122
 _ZTSN10Qt3DRender14QBufferCaptureE@Qt_5 5.9.0
 _ZTSN10Qt3DRender14QLevelOfDetailE@Qt_5 5.9.0
 _ZTSN10Qt3DRender14QMemoryBarrierE@Qt_5 5.9.0
 _ZTSN10Qt3DRender14QPickLineEventE@Qt_5 5.10.1
 _ZTSN10Qt3DRender14QPolygonOffsetE@Qt_5 5.7.1~20161122
 _ZTSN10Qt3DRender14QRenderCaptureE@Qt_5 5.9.0
 _ZTSN10Qt3DRender14QShaderProgramE@Qt_5 5.7.1~20161122
 _ZTSN10Qt3DRender14QTextureBufferE@Qt_5 5.7.1~20161122
 _ZTSN10Qt3DRender14QTextureLoaderE@Qt_5 5.7.1~20161122
 _ZTSN10Qt3DRender15QCameraSelectorE@Qt_5 5.7.1~20161122
 _ZTSN10Qt3DRender15QComputeCommandE@Qt_5 5.7.1~20161122
 _ZTSN10Qt3DRender15QFrameGraphNodeE@Qt_5 5.7.1~20161122
 _ZTSN10Qt3DRender15QFrustumCullingE@Qt_5 5.7.1~20161122
 _ZTSN10Qt3DRender15QPickPointEventE@Qt_5 5.10.1
 _ZTSN10Qt3DRender15QRenderSettingsE@Qt_5 5.7.1~20161122
 _ZTSN10Qt3DRender15QRenderStateSetE@Qt_5 5.7.1~20161122
 _ZTSN10Qt3DRender15QSubtreeEnablerE@Qt_5 5.14.2
 _ZTSN10Qt3DRender15QTexture1DArrayE@Qt_5 5.7.1~20161122
 _ZTSN10Qt3DRender15QTexture2DArrayE@Qt_5 5.7.1~20161122
 _ZTSN10Qt3DRender15QTextureCubeMapE@Qt_5 5.7.1~20161122
 _ZTSN10Qt3DRender16QAbstractFunctorE@Qt_5 5.7.1~20161122
 _ZTSN10Qt3DRender16QAbstractTextureE@Qt_5 5.7.1~20161122
 _ZTSN10Qt3DRender16QBlitFramebufferE@Qt_5 5.10.1
 _ZTSN10Qt3DRender16QDispatchComputeE@Qt_5 5.7.1~20161122
 _ZTSN10Qt3DRender16QGeometryFactoryE@Qt_5 5.7.1~20161122
 _ZTSN10Qt3DRender16QPickingSettingsE@Qt_5 5.7.1~20161122
 _ZTSN10Qt3DRender16QProximityFilterE@Qt_5 5.10.1
 _ZTSN10Qt3DRender16QScreenRayCasterE@Qt_5 5.11.1
 _ZTSN10Qt3DRender16QSeamlessCubemapE@Qt_5 5.7.1~20161122
 _ZTSN10Qt3DRender16QSharedGLTextureE@Qt_5 5.14.2
 _ZTSN10Qt3DRender16QTechniqueFilterE@Qt_5 5.7.1~20161122
 _ZTSN10Qt3DRender16QTextureWrapModeE@Qt_5 5.7.1~20161122
 _ZTSN10Qt3DRender17QDirectionalLightE@Qt_5 5.7.1~20161122
 _ZTSN10Qt3DRender17QEnvironmentLightE@Qt_5 5.9.0
 _ZTSN10Qt3DRender17QGeometryRendererE@Qt_5 5.7.1~20161122
 _ZTSN10Qt3DRender17QRenderPassFilterE@Qt_5 5.7.1~20161122
 _ZTSN10Qt3DRender17QStencilOperationE@Qt_5 5.7.1~20161122
 _ZTSN10Qt3DRender17QTextureGeneratorE@Qt_5 5.7.1~20161122
 _ZTSN10Qt3DRender17QTextureRectangleE@Qt_5 5.7.1~20161122
 _ZTSN10Qt3DRender18QAbstractRayCasterE@Qt_5 5.11.1
 _ZTSN10Qt3DRender18QGraphicsApiFilterE@Qt_5 5.7.1~20161122
 _ZTSN10Qt3DRender18QPickTriangleEventE@Qt_5 5.7.1~20161122
 _ZTSN10Qt3DRender19QRenderCapabilitiesE@Qt_5 5.15.1
 _ZTSN10Qt3DRender19QRenderCaptureReplyE@Qt_5 5.9.0
 _ZTSN10Qt3DRender19QRenderTargetOutputE@Qt_5 5.7.1~20161122
 _ZTSN10Qt3DRender20QLevelOfDetailSwitchE@Qt_5 5.9.0
 _ZTSN10Qt3DRender20QPaintedTextureImageE@Qt_5 5.9.0
 _ZTSN10Qt3DRender20QTextureCubeMapArrayE@Qt_5 5.7.1~20161122
 _ZTSN10Qt3DRender21QAbstractTextureImageE@Qt_5 5.7.1~20161122
 _ZTSN10Qt3DRender21QRenderTargetSelectorE@Qt_5 5.7.1~20161122
 _ZTSN10Qt3DRender21QShaderProgramBuilderE@Qt_5 5.10.1
 _ZTSN10Qt3DRender21QStencilTestArgumentsE@Qt_5 5.7.1~20161122
 _ZTSN10Qt3DRender21QTexture2DMultisampleE@Qt_5 5.7.1~20161122
 _ZTSN10Qt3DRender22QRenderSurfaceSelectorE@Qt_5 5.7.1~20161122
 _ZTSN10Qt3DRender23PropertyReaderInterfaceE@Qt_5 5.7.1~20161122
 _ZTSN10Qt3DRender23QBlendEquationArgumentsE@Qt_5 5.7.1~20161122
 _ZTSN10Qt3DRender24QMultiSampleAntiAliasingE@Qt_5 5.7.1~20161122
 _ZTSN10Qt3DRender26QStencilOperationArgumentsE@Qt_5 5.7.1~20161122
 _ZTSN10Qt3DRender26QTexture2DMultisampleArrayE@Qt_5 5.7.1~20161122
 _ZTSN10Qt3DRender26QTextureImageDataGeneratorE@Qt_5 5.7.1~20161122
 _ZTSN10Qt3DRender32QFrameGraphNodeCreatedChangeBaseE@Qt_5 5.9.0
 _ZTSN10Qt3DRender5QMeshE@Qt_5 5.7.1~20161122
 _ZTSN10Qt3DRender6QLayerE@Qt_5 5.7.1~20161122
 _ZTSN10Qt3DRender6Render30UpdateWorldTransformJobPrivateE@Qt_5 5.14.2
 _ZTSN10Qt3DRender7QBufferE@Qt_5 5.7.1~20161122
 _ZTSN10Qt3DRender7QCameraE@Qt_5 5.7.1~20161122
 _ZTSN10Qt3DRender7QEffectE@Qt_5 5.7.1~20161122
 _ZTSN10Qt3DRender7QNoDrawE@Qt_5 5.7.1~20161122
 _ZTSN10Qt3DRender9QCullFaceE@Qt_5 5.7.1~20161122
 _ZTSN10Qt3DRender9QGeometryE@Qt_5 5.7.1~20161122
 _ZTSN10Qt3DRender9QMaterialE@Qt_5 5.7.1~20161122
 _ZTSN10Qt3DRender9QSetFenceE@Qt_5 5.14.2
 _ZTSN10Qt3DRender9QViewportE@Qt_5 5.7.1~20161122
 _ZTSN8Qt3DCore29QNodeCreatedChangeBasePrivateE@Qt_5 5.7.1~20161122
 _ZTVN10Qt3DRender10QAlphaTestE@Qt_5 5.7.1~20161122
 _ZTVN10Qt3DRender10QAttributeE@Qt_5 5.7.1~20161122
 _ZTVN10Qt3DRender10QClipPlaneE@Qt_5 5.7.1~20161122
 _ZTVN10Qt3DRender10QColorMaskE@Qt_5 5.7.1~20161122
 _ZTVN10Qt3DRender10QDepthTestE@Qt_5 5.7.1~20161122
 _ZTVN10Qt3DRender10QDitheringE@Qt_5 5.7.1~20161122
 _ZTVN10Qt3DRender10QFilterKeyE@Qt_5 5.7.1~20161122
 _ZTVN10Qt3DRender10QFrontFaceE@Qt_5 5.7.1~20161122
 _ZTVN10Qt3DRender10QLineWidthE@Qt_5 5.10.1
 _ZTVN10Qt3DRender10QNoPickingE@Qt_5 5.14.2
 _ZTVN10Qt3DRender10QParameterE@Qt_5 5.7.1~20161122
 _ZTVN10Qt3DRender10QPickEventE@Qt_5 5.7.1~20161122
 _ZTVN10Qt3DRender10QPointSizeE@Qt_5 5.7.1~20161122
 _ZTVN10Qt3DRender10QRayCasterE@Qt_5 5.11.1
 _ZTVN10Qt3DRender10QSpotLightE@Qt_5 5.7.1~20161122
 _ZTVN10Qt3DRender10QTechniqueE@Qt_5 5.7.1~20161122
 _ZTVN10Qt3DRender10QTexture1DE@Qt_5 5.7.1~20161122
 _ZTVN10Qt3DRender10QTexture2DE@Qt_5 5.7.1~20161122
 _ZTVN10Qt3DRender10QTexture3DE@Qt_5 5.7.1~20161122
 _ZTVN10Qt3DRender10QWaitFenceE@Qt_5 5.14.2
 _ZTVN10Qt3DRender11QCameraLensE@Qt_5 5.7.1~20161122
 _ZTVN10Qt3DRender11QDepthRangeE@Qt_5 5.14.2
 _ZTVN10Qt3DRender11QPointLightE@Qt_5 5.7.1~20161122
 _ZTVN10Qt3DRender11QRasterModeE@Qt_5 5.14.2
 _ZTVN10Qt3DRender11QRenderPassE@Qt_5 5.7.1~20161122
 _ZTVN10Qt3DRender11QShaderDataE@Qt_5 5.7.1~20161122
 _ZTVN10Qt3DRender11QSortPolicyE@Qt_5 5.7.1~20161122
 _ZTVN10Qt3DRender12QLayerFilterE@Qt_5 5.7.1~20161122
 _ZTVN10Qt3DRender12QNoDepthMaskE@Qt_5 5.7.1~20161122
 _ZTVN10Qt3DRender12QRenderStateE@Qt_5 5.7.1~20161122
 _ZTVN10Qt3DRender12QSceneLoaderE@Qt_5 5.7.1~20161122
 _ZTVN10Qt3DRender12QScissorTestE@Qt_5 5.7.1~20161122
 _ZTVN10Qt3DRender12QShaderImageE@Qt_5 5.14.2
 _ZTVN10Qt3DRender12QStencilMaskE@Qt_5 5.7.1~20161122
 _ZTVN10Qt3DRender12QStencilTestE@Qt_5 5.7.1~20161122
 _ZTVN10Qt3DRender13QClearBuffersE@Qt_5 5.7.1~20161122
 _ZTVN10Qt3DRender13QDebugOverlayE@Qt_5 5.15.1
 _ZTVN10Qt3DRender13QObjectPickerE@Qt_5 5.7.1~20161122
 _ZTVN10Qt3DRender13QRenderAspectE@Qt_5 5.7.1~20161122
 _ZTVN10Qt3DRender13QRenderTargetE@Qt_5 5.7.1~20161122
 _ZTVN10Qt3DRender13QTextureImageE@Qt_5 5.7.1~20161122
 _ZTVN10Qt3DRender14QAbstractLightE@Qt_5 5.7.1~20161122
 _ZTVN10Qt3DRender14QAlphaCoverageE@Qt_5 5.7.1~20161122
 _ZTVN10Qt3DRender14QBlendEquationE@Qt_5 5.7.1~20161122
 _ZTVN10Qt3DRender14QBufferCaptureE@Qt_5 5.9.0
 _ZTVN10Qt3DRender14QLevelOfDetailE@Qt_5 5.9.0
 _ZTVN10Qt3DRender14QMemoryBarrierE@Qt_5 5.9.0
 _ZTVN10Qt3DRender14QPickLineEventE@Qt_5 5.10.1
 _ZTVN10Qt3DRender14QPolygonOffsetE@Qt_5 5.7.1~20161122
 _ZTVN10Qt3DRender14QRenderCaptureE@Qt_5 5.9.0
 _ZTVN10Qt3DRender14QShaderProgramE@Qt_5 5.7.1~20161122
 _ZTVN10Qt3DRender14QTextureBufferE@Qt_5 5.7.1~20161122
 _ZTVN10Qt3DRender14QTextureLoaderE@Qt_5 5.7.1~20161122
 _ZTVN10Qt3DRender15QCameraSelectorE@Qt_5 5.7.1~20161122
 _ZTVN10Qt3DRender15QComputeCommandE@Qt_5 5.7.1~20161122
 _ZTVN10Qt3DRender15QFrameGraphNodeE@Qt_5 5.7.1~20161122
 _ZTVN10Qt3DRender15QFrustumCullingE@Qt_5 5.7.1~20161122
 _ZTVN10Qt3DRender15QPickPointEventE@Qt_5 5.10.1
 _ZTVN10Qt3DRender15QRenderSettingsE@Qt_5 5.7.1~20161122
 _ZTVN10Qt3DRender15QRenderStateSetE@Qt_5 5.7.1~20161122
 _ZTVN10Qt3DRender15QSubtreeEnablerE@Qt_5 5.14.2
 _ZTVN10Qt3DRender15QTexture1DArrayE@Qt_5 5.7.1~20161122
 _ZTVN10Qt3DRender15QTexture2DArrayE@Qt_5 5.7.1~20161122
 _ZTVN10Qt3DRender15QTextureCubeMapE@Qt_5 5.7.1~20161122
 _ZTVN10Qt3DRender16QAbstractFunctorE@Qt_5 5.7.1~20161122
 _ZTVN10Qt3DRender16QAbstractTextureE@Qt_5 5.7.1~20161122
 _ZTVN10Qt3DRender16QBlitFramebufferE@Qt_5 5.10.1
 _ZTVN10Qt3DRender16QDispatchComputeE@Qt_5 5.7.1~20161122
 _ZTVN10Qt3DRender16QGeometryFactoryE@Qt_5 5.7.1~20161122
 _ZTVN10Qt3DRender16QPickingSettingsE@Qt_5 5.7.1~20161122
 _ZTVN10Qt3DRender16QProximityFilterE@Qt_5 5.10.1
 _ZTVN10Qt3DRender16QScreenRayCasterE@Qt_5 5.11.1
 _ZTVN10Qt3DRender16QSeamlessCubemapE@Qt_5 5.7.1~20161122
 _ZTVN10Qt3DRender16QSharedGLTextureE@Qt_5 5.14.2
 _ZTVN10Qt3DRender16QTechniqueFilterE@Qt_5 5.7.1~20161122
 _ZTVN10Qt3DRender16QTextureWrapModeE@Qt_5 5.7.1~20161122
 _ZTVN10Qt3DRender17QDirectionalLightE@Qt_5 5.7.1~20161122
 _ZTVN10Qt3DRender17QEnvironmentLightE@Qt_5 5.9.0
 _ZTVN10Qt3DRender17QGeometryRendererE@Qt_5 5.7.1~20161122
 _ZTVN10Qt3DRender17QRenderPassFilterE@Qt_5 5.7.1~20161122
 _ZTVN10Qt3DRender17QStencilOperationE@Qt_5 5.7.1~20161122
 _ZTVN10Qt3DRender17QTextureGeneratorE@Qt_5 5.7.1~20161122
 _ZTVN10Qt3DRender17QTextureRectangleE@Qt_5 5.7.1~20161122
 _ZTVN10Qt3DRender18QAbstractRayCasterE@Qt_5 5.11.1
 _ZTVN10Qt3DRender18QGraphicsApiFilterE@Qt_5 5.7.1~20161122
 _ZTVN10Qt3DRender18QPickTriangleEventE@Qt_5 5.7.1~20161122
 _ZTVN10Qt3DRender19QRenderCapabilitiesE@Qt_5 5.15.1
 _ZTVN10Qt3DRender19QRenderCaptureReplyE@Qt_5 5.9.0
 _ZTVN10Qt3DRender19QRenderTargetOutputE@Qt_5 5.7.1~20161122
 _ZTVN10Qt3DRender20QLevelOfDetailSwitchE@Qt_5 5.9.0
 _ZTVN10Qt3DRender20QPaintedTextureImageE@Qt_5 5.9.0
 _ZTVN10Qt3DRender20QTextureCubeMapArrayE@Qt_5 5.7.1~20161122
 _ZTVN10Qt3DRender21QAbstractTextureImageE@Qt_5 5.7.1~20161122
 _ZTVN10Qt3DRender21QRenderTargetSelectorE@Qt_5 5.7.1~20161122
 _ZTVN10Qt3DRender21QShaderProgramBuilderE@Qt_5 5.10.1
 _ZTVN10Qt3DRender21QStencilTestArgumentsE@Qt_5 5.7.1~20161122
 _ZTVN10Qt3DRender21QTexture2DMultisampleE@Qt_5 5.7.1~20161122
 _ZTVN10Qt3DRender22QRenderSurfaceSelectorE@Qt_5 5.7.1~20161122
 _ZTVN10Qt3DRender23PropertyReaderInterfaceE@Qt_5 5.7.1~20161122
 _ZTVN10Qt3DRender23QBlendEquationArgumentsE@Qt_5 5.7.1~20161122
 _ZTVN10Qt3DRender24QMultiSampleAntiAliasingE@Qt_5 5.7.1~20161122
 _ZTVN10Qt3DRender26QStencilOperationArgumentsE@Qt_5 5.7.1~20161122
 _ZTVN10Qt3DRender26QTexture2DMultisampleArrayE@Qt_5 5.7.1~20161122
 _ZTVN10Qt3DRender26QTextureImageDataGeneratorE@Qt_5 5.7.1~20161122
 _ZTVN10Qt3DRender32QFrameGraphNodeCreatedChangeBaseE@Qt_5 5.9.0
 _ZTVN10Qt3DRender5QMeshE@Qt_5 5.7.1~20161122
 _ZTVN10Qt3DRender6QLayerE@Qt_5 5.7.1~20161122
 _ZTVN10Qt3DRender6Render30UpdateWorldTransformJobPrivateE@Qt_5 5.14.2
 _ZTVN10Qt3DRender7QBufferE@Qt_5 5.7.1~20161122
 _ZTVN10Qt3DRender7QCameraE@Qt_5 5.7.1~20161122
 _ZTVN10Qt3DRender7QEffectE@Qt_5 5.7.1~20161122
 _ZTVN10Qt3DRender7QNoDrawE@Qt_5 5.7.1~20161122
 _ZTVN10Qt3DRender9QCullFaceE@Qt_5 5.7.1~20161122
 _ZTVN10Qt3DRender9QGeometryE@Qt_5 5.7.1~20161122
 _ZTVN10Qt3DRender9QMaterialE@Qt_5 5.7.1~20161122
 _ZTVN10Qt3DRender9QSetFenceE@Qt_5 5.14.2
 _ZTVN10Qt3DRender9QViewportE@Qt_5 5.7.1~20161122
 _ZTVN8Qt3DCore29QNodeCreatedChangeBasePrivateE@Qt_5 5.7.1~20161122
